ccopy_reg
_reconstructor
p1
(cgdata.youtube
YouTubePlaylistFeed
p2
c__builtin__
object
p3
NtRp4
(dp5
S'category'
p6
(lp7
g1
(catom
Category
p8
g3
NtRp9
(dp10
S'term'
p11
S'http://gdata.youtube.com/schemas/2007#playlistLink'
p12
sS'extension_attributes'
p13
(dp14
sS'text'
p15
NsS'label'
p16
NsS'scheme'
p17
S'http://schemas.google.com/g/2005#kind'
p18
sS'extension_elements'
p19
(lp20
sbasS'updated'
p21
g1
(catom
Updated
p22
g3
NtRp23
(dp24
g15
S'2014-01-21T03:41:36.322Z'
p25
sg13
(dp26
sg19
(lp27
sbsS'subtitle'
p28
NsS'_GDataFeed__id'
p29
g1
(catom
Id
p30
g3
NtRp31
(dp32
g15
S'http://gdata.youtube.com/feeds/api/users/electronicanstuff/playlists'
p33
sg13
(dp34
sg19
(lp35
sbsS'author'
p36
(lp37
g1
(catom
Author
p38
g3
NtRp39
(dp40
g13
(dp41
sg15
NsS'uri'
p42
g1
(catom
Uri
p43
g3
NtRp44
(dp45
g15
S'https://gdata.youtube.com/feeds/api/users/electronicaNstuff'
p46
sg13
(dp47
sg19
(lp48
sbsS'name'
p49
g1
(catom
Name
p50
g3
NtRp51
(dp52
g15
S'electronicaNstuff'
p53
sg13
(dp54
sg19
(lp55
sbsS'email'
p56
Nsg19
(lp57
sbasS'total_results'
p58
g1
(cgdata
TotalResults
p59
g3
NtRp60
(dp61
g15
S'76'
p62
sg13
(dp63
sg19
(lp64
sbsS'title'
p65
g1
(catom
Title
p66
g3
NtRp67
(dp68
g15
S'Playlists of electronicaNstuff'
p69
sS'type'
p70
S'text'
p71
sg13
(dp72
sg19
(lp73
sbsS'rights'
p74
NsS'_GDataFeed__generator'
p75
g1
(catom
Generator
p76
g3
NtRp77
(dp78
g13
(dp79
sg15
S'YouTube data API'
p80
sS'version'
p81
S'2.1'
p82
sg42
S'http://gdata.youtube.com'
p83
sg19
(lp84
sbsg13
(dp85
sS'link'
p86
(lp87
g1
(catom
Link
p88
g3
NtRp89
(dp90
g13
(dp91
sg65
Nsg15
NsS'hreflang'
p92
NsS'length'
p93
NsS'href'
p94
S'https://gdata.youtube.com/feeds/api/users/electronicanstuff'
p95
sS'rel'
p96
S'related'
p97
sg70
S'application/atom+xml'
p98
sg19
(lp99
sbag1
(g88
g3
NtRp100
(dp101
g13
(dp102
sg65
Nsg15
Nsg92
Nsg93
Nsg94
S'https://www.youtube.com'
p103
sg96
S'alternate'
p104
sg70
S'text/html'
p105
sg19
(lp106
sbag1
(g88
g3
NtRp107
(dp108
g13
(dp109
sg65
Nsg15
Nsg92
Nsg93
Nsg94
S'https://gdata.youtube.com/feeds/api/users/electronicanstuff/playlists'
p110
sg96
S'http://schemas.google.com/g/2005#feed'
p111
sg70
S'application/atom+xml'
p112
sg19
(lp113
sbag1
(g88
g3
NtRp114
(dp115
g13
(dp116
sg65
Nsg15
Nsg92
Nsg93
Nsg94
S'https://gdata.youtube.com/feeds/api/users/electronicanstuff/playlists'
p117
sg96
S'http://schemas.google.com/g/2005#post'
p118
sg70
S'application/atom+xml'
p119
sg19
(lp120
sbag1
(g88
g3
NtRp121
(dp122
g13
(dp123
sg65
Nsg15
Nsg92
Nsg93
Nsg94
S'https://gdata.youtube.com/feeds/api/users/electronicanstuff/playlists/batch'
p124
sg96
S'http://schemas.google.com/g/2005#batch'
p125
sg70
S'application/atom+xml'
p126
sg19
(lp127
sbag1
(g88
g3
NtRp128
(dp129
g13
(dp130
sg65
Nsg15
Nsg92
Nsg93
Nsg94
S'https://gdata.youtube.com/feeds/api/users/electronicanstuff/playlists?start-index=1&max-results=25'
p131
sg96
S'self'
p132
sg70
S'application/atom+xml'
p133
sg19
(lp134
sbag1
(g88
g3
NtRp135
(dp136
g13
(dp137
sg65
Nsg15
Nsg92
Nsg93
Nsg94
S'https://gdata.youtube.com/feeds/api/users/electronicanstuff/playlists?start-index=26&max-results=25'
p138
sg96
S'next'
p139
sg70
S'application/atom+xml'
p140
sg19
(lp141
sbasS'items_per_page'
p142
g1
(cgdata
ItemsPerPage
p143
g3
NtRp144
(dp145
g15
S'25'
p146
sg13
(dp147
sg19
(lp148
sbsS'entry'
p149
(lp150
g1
(cgdata.youtube
YouTubePlaylistEntry
p151
g3
NtRp152
(dp153
g6
(lp154
g1
(g8
g3
NtRp155
(dp156
g11
S'http://gdata.youtube.com/schemas/2007#playlistLink'
p157
sg13
(dp158
sg15
Nsg16
Nsg17
S'http://schemas.google.com/g/2005#kind'
p159
sg19
(lp160
sbasS'control'
p161
Nsg21
g1
(g22
g3
NtRp162
(dp163
g15
S'2014-01-21T03:40:41.000Z'
p164
sg13
(dp165
sg19
(lp166
sbsS'_GDataEntry__id'
p167
g1
(g30
g3
NtRp168
(dp169
g15
S'http://gdata.youtube.com/feeds/api/users/electronicanstuff/playlists/PLbAVnhNl-sE5WpLiD1xoSmtDHRnvRGhy6'
p170
sg13
(dp171
sg19
(lp172
sbsS'description'
p173
g1
(cgdata.youtube
Description
p174
g3
NtRp175
(dp176
g15
S'A Pintube Playlist'
p177
sg13
(dp178
sg19
(lp179
sbsS'feed_link'
p180
(lp181
g1
(cgdata
FeedLink
p182
g3
NtRp183
(dp184
S'read_only'
p185
NsS'feed'
p186
Nsg13
(dp187
sg15
Nsg94
S'https://gdata.youtube.com/feeds/api/playlists/PLbAVnhNl-sE5WpLiD1xoSmtDHRnvRGhy6'
p188
sg96
S'http://gdata.youtube.com/schemas/2007#playlist'
p189
sS'count_hint'
p190
S'0'
sg19
(lp191
sbasg36
(lp192
g1
(g38
g3
NtRp193
(dp194
g13
(dp195
sg15
Nsg42
g1
(g43
g3
NtRp196
(dp197
g15
S'https://gdata.youtube.com/feeds/api/users/electronicaNstuff'
p198
sg13
(dp199
sg19
(lp200
sbsg49
g1
(g50
g3
NtRp201
(dp202
g15
S'electronicaNstuff'
p203
sg13
(dp204
sg19
(lp205
sbsg56
Nsg19
(lp206
sbasg15
Nsg74
NsS'private'
p207
NsS'summary'
p208
NsS'content'
p209
g1
(catom
Content
p210
g3
NtRp211
(dp212
S'src'
p213
Nsg19
(lp214
sg70
S'text'
p215
sg13
(dp216
sg15
S'A Pintube Playlist'
p217
sbsS'source'
p218
Nsg13
(dp219
sg86
(lp220
g1
(g88
g3
NtRp221
(dp222
g13
(dp223
sg65
Nsg15
Nsg92
Nsg93
Nsg94
S'https://gdata.youtube.com/feeds/api/users/electronicanstuff'
p224
sg96
S'related'
p225
sg70
S'application/atom+xml'
p226
sg19
(lp227
sbag1
(g88
g3
NtRp228
(dp229
g13
(dp230
sg65
Nsg15
Nsg92
Nsg93
Nsg94
S'https://www.youtube.com/playlist?list=PLbAVnhNl-sE5WpLiD1xoSmtDHRnvRGhy6'
p231
sg96
S'alternate'
p232
sg70
S'text/html'
p233
sg19
(lp234
sbag1
(g88
g3
NtRp235
(dp236
g13
(dp237
sg65
Nsg15
Nsg92
Nsg93
Nsg94
S'https://gdata.youtube.com/feeds/api/users/electronicanstuff/playlists/PLbAVnhNl-sE5WpLiD1xoSmtDHRnvRGhy6'
p238
sg96
S'self'
p239
sg70
S'application/atom+xml'
p240
sg19
(lp241
sbag1
(g88
g3
NtRp242
(dp243
g13
(dp244
sg65
Nsg15
Nsg92
Nsg93
Nsg94
S'https://gdata.youtube.com/feeds/api/users/electronicanstuff/playlists/PLbAVnhNl-sE5WpLiD1xoSmtDHRnvRGhy6'
p245
sg96
S'edit'
p246
sg70
S'application/atom+xml'
p247
sg19
(lp248
sbasS'published'
p249
g1
(catom
Published
p250
g3
NtRp251
(dp252
g15
S'2014-01-13T01:44:22.000Z'
p253
sg13
(dp254
sg19
(lp255
sbsS'contributor'
p256
(lp257
sg65
g1
(g66
g3
NtRp258
(dp259
g15
S'meditation'
p260
sg70
S'text'
p261
sg13
(dp262
sg19
(lp263
sbsg19
(lp264
g1
(catom
ExtensionElement
p265
g3
NtRp266
(dp267
S'attributes'
p268
(dp269
sS'tag'
p270
S'group'
p271
sS'namespace'
p272
S'http://search.yahoo.com/mrss/'
p273
sS'children'
p274
(lp275
g1
(g265
g3
NtRp276
(dp277
g268
(dp278
S'url'
p279
S'https://i.ytimg.com/vi/lWIFMfEgc8A/default.jpg'
p280
sS'width'
p281
S'120'
p282
sS'height'
p283
S'90'
p284
sS'{http://gdata.youtube.com/schemas/2007}name'
p285
S'default'
p286
ssg270
S'thumbnail'
p287
sg272
S'http://search.yahoo.com/mrss/'
p288
sg274
(lp289
sg15
Nsbag1
(g265
g3
NtRp290
(dp291
g268
(dp292
g279
S'https://i.ytimg.com/vi/lWIFMfEgc8A/mqdefault.jpg'
p293
sg281
S'320'
p294
sg283
S'180'
p295
sg285
S'mqdefault'
p296
ssg270
S'thumbnail'
p297
sg272
S'http://search.yahoo.com/mrss/'
p298
sg274
(lp299
sg15
Nsbag1
(g265
g3
NtRp300
(dp301
g268
(dp302
g279
S'https://i.ytimg.com/vi/lWIFMfEgc8A/hqdefault.jpg'
p303
sg281
S'480'
p304
sg283
S'360'
p305
sg285
S'hqdefault'
p306
ssg270
S'thumbnail'
p307
sg272
S'http://search.yahoo.com/mrss/'
p308
sg274
(lp309
sg15
Nsbag1
(g265
g3
NtRp310
(dp311
g268
(dp312
S'seconds'
p313
S'0'
ssg270
S'duration'
p314
sg272
S'http://gdata.youtube.com/schemas/2007'
p315
sg274
(lp316
sg15
Nsbasg15
Nsbag1
(g265
g3
NtRp317
(dp318
g268
(dp319
sg270
S'playlistId'
p320
sg272
S'http://gdata.youtube.com/schemas/2007'
p321
sg274
(lp322
sg15
S'PLbAVnhNl-sE5WpLiD1xoSmtDHRnvRGhy6'
p323
sbasbag1
(g151
g3
NtRp324
(dp325
g6
(lp326
g1
(g8
g3
NtRp327
(dp328
g11
S'http://gdata.youtube.com/schemas/2007#playlistLink'
p329
sg13
(dp330
sg15
Nsg16
Nsg17
S'http://schemas.google.com/g/2005#kind'
p331
sg19
(lp332
sbasg161
Nsg21
g1
(g22
g3
NtRp333
(dp334
g15
S'2014-01-02T21:52:16.000Z'
p335
sg13
(dp336
sg19
(lp337
sbsg167
g1
(g30
g3
NtRp338
(dp339
g15
S'http://gdata.youtube.com/feeds/api/users/electronicanstuff/playlists/PLbAVnhNl-sE6jWcAg1c9X1BPNC8YcM9EJ'
p340
sg13
(dp341
sg19
(lp342
sbsg173
g1
(g174
g3
NtRp343
(dp344
g15
Nsg13
(dp345
sg19
(lp346
sbsg180
(lp347
g1
(g182
g3
NtRp348
(dp349
g185
Nsg186
Nsg13
(dp350
sg15
Nsg94
S'https://gdata.youtube.com/feeds/api/playlists/PLbAVnhNl-sE6jWcAg1c9X1BPNC8YcM9EJ'
p351
sg96
S'http://gdata.youtube.com/schemas/2007#playlist'
p352
sg190
S'3'
sg19
(lp353
sbasg36
(lp354
g1
(g38
g3
NtRp355
(dp356
g13
(dp357
sg15
Nsg42
g1
(g43
g3
NtRp358
(dp359
g15
S'https://gdata.youtube.com/feeds/api/users/electronicaNstuff'
p360
sg13
(dp361
sg19
(lp362
sbsg49
g1
(g50
g3
NtRp363
(dp364
g15
S'electronicaNstuff'
p365
sg13
(dp366
sg19
(lp367
sbsg56
Nsg19
(lp368
sbasg15
Nsg74
Nsg207
Nsg208
Nsg209
g1
(g210
g3
NtRp369
(dp370
g213
Nsg19
(lp371
sg70
S'text'
p372
sg13
(dp373
sg15
Nsbsg218
Nsg13
(dp374
sg86
(lp375
g1
(g88
g3
NtRp376
(dp377
g13
(dp378
sg65
Nsg15
Nsg92
Nsg93
Nsg94
S'https://gdata.youtube.com/feeds/api/users/electronicanstuff'
p379
sg96
S'related'
p380
sg70
S'application/atom+xml'
p381
sg19
(lp382
sbag1
(g88
g3
NtRp383
(dp384
g13
(dp385
sg65
Nsg15
Nsg92
Nsg93
Nsg94
S'https://www.youtube.com/playlist?list=PLbAVnhNl-sE6jWcAg1c9X1BPNC8YcM9EJ'
p386
sg96
S'alternate'
p387
sg70
S'text/html'
p388
sg19
(lp389
sbag1
(g88
g3
NtRp390
(dp391
g13
(dp392
sg65
Nsg15
Nsg92
Nsg93
Nsg94
S'https://gdata.youtube.com/feeds/api/users/electronicanstuff/playlists/PLbAVnhNl-sE6jWcAg1c9X1BPNC8YcM9EJ'
p393
sg96
S'self'
p394
sg70
S'application/atom+xml'
p395
sg19
(lp396
sbag1
(g88
g3
NtRp397
(dp398
g13
(dp399
sg65
Nsg15
Nsg92
Nsg93
Nsg94
S'https://gdata.youtube.com/feeds/api/users/electronicanstuff/playlists/PLbAVnhNl-sE6jWcAg1c9X1BPNC8YcM9EJ'
p400
sg96
S'edit'
p401
sg70
S'application/atom+xml'
p402
sg19
(lp403
sbasg249
g1
(g250
g3
NtRp404
(dp405
g15
S'2013-11-24T06:04:33.000Z'
p406
sg13
(dp407
sg19
(lp408
sbsg256
(lp409
sg65
g1
(g66
g3
NtRp410
(dp411
g15
S'Music for the Soul'
p412
sg70
S'text'
p413
sg13
(dp414
sg19
(lp415
sbsg19
(lp416
g1
(g265
g3
NtRp417
(dp418
g268
(dp419
sg270
S'group'
p420
sg272
S'http://search.yahoo.com/mrss/'
p421
sg274
(lp422
g1
(g265
g3
NtRp423
(dp424
g268
(dp425
g279
S'https://i.ytimg.com/vi/WKnVaDwUg5s/default.jpg'
p426
sg281
S'120'
p427
sg283
S'90'
p428
sg285
S'default'
p429
ssg270
S'thumbnail'
p430
sg272
S'http://search.yahoo.com/mrss/'
p431
sg274
(lp432
sg15
Nsbag1
(g265
g3
NtRp433
(dp434
g268
(dp435
g279
S'https://i.ytimg.com/vi/WKnVaDwUg5s/mqdefault.jpg'
p436
sg281
S'320'
p437
sg283
S'180'
p438
sg285
S'mqdefault'
p439
ssg270
S'thumbnail'
p440
sg272
S'http://search.yahoo.com/mrss/'
p441
sg274
(lp442
sg15
Nsbag1
(g265
g3
NtRp443
(dp444
g268
(dp445
g279
S'https://i.ytimg.com/vi/WKnVaDwUg5s/hqdefault.jpg'
p446
sg281
S'480'
p447
sg283
S'360'
p448
sg285
S'hqdefault'
p449
ssg270
S'thumbnail'
p450
sg272
S'http://search.yahoo.com/mrss/'
p451
sg274
(lp452
sg15
Nsbag1
(g265
g3
NtRp453
(dp454
g268
(dp455
g313
S'0'
ssg270
S'duration'
p456
sg272
S'http://gdata.youtube.com/schemas/2007'
p457
sg274
(lp458
sg15
Nsbasg15
Nsbag1
(g265
g3
NtRp459
(dp460
g268
(dp461
sg270
S'playlistId'
p462
sg272
S'http://gdata.youtube.com/schemas/2007'
p463
sg274
(lp464
sg15
S'PLbAVnhNl-sE6jWcAg1c9X1BPNC8YcM9EJ'
p465
sbasbag1
(g151
g3
NtRp466
(dp467
g6
(lp468
g1
(g8
g3
NtRp469
(dp470
g11
S'http://gdata.youtube.com/schemas/2007#playlistLink'
p471
sg13
(dp472
sg15
Nsg16
Nsg17
S'http://schemas.google.com/g/2005#kind'
p473
sg19
(lp474
sbasg161
Nsg21
g1
(g22
g3
NtRp475
(dp476
g15
S'2013-11-07T19:27:58.000Z'
p477
sg13
(dp478
sg19
(lp479
sbsg167
g1
(g30
g3
NtRp480
(dp481
g15
S'http://gdata.youtube.com/feeds/api/users/electronicanstuff/playlists/PLbAVnhNl-sE4IKlzNLYNd_uWX1z7PrNFB'
p482
sg13
(dp483
sg19
(lp484
sbsg173
g1
(g174
g3
NtRp485
(dp486
g15
Nsg13
(dp487
sg19
(lp488
sbsg180
(lp489
g1
(g182
g3
NtRp490
(dp491
g185
Nsg186
Nsg13
(dp492
sg15
Nsg94
S'https://gdata.youtube.com/feeds/api/playlists/PLbAVnhNl-sE4IKlzNLYNd_uWX1z7PrNFB'
p493
sg96
S'http://gdata.youtube.com/schemas/2007#playlist'
p494
sg190
S'2'
sg19
(lp495
sbasg36
(lp496
g1
(g38
g3
NtRp497
(dp498
g13
(dp499
sg15
Nsg42
g1
(g43
g3
NtRp500
(dp501
g15
S'https://gdata.youtube.com/feeds/api/users/electronicaNstuff'
p502
sg13
(dp503
sg19
(lp504
sbsg49
g1
(g50
g3
NtRp505
(dp506
g15
S'electronicaNstuff'
p507
sg13
(dp508
sg19
(lp509
sbsg56
Nsg19
(lp510
sbasg15
Nsg74
Nsg207
g1
(cgdata.youtube
Private
p511
g3
NtRp512
(dp513
g15
Nsg13
(dp514
sg19
(lp515
sbsg208
Nsg209
g1
(g210
g3
NtRp516
(dp517
g213
Nsg19
(lp518
sg70
S'text'
p519
sg13
(dp520
sg15
Nsbsg218
Nsg13
(dp521
sg86
(lp522
g1
(g88
g3
NtRp523
(dp524
g13
(dp525
sg65
Nsg15
Nsg92
Nsg93
Nsg94
S'https://gdata.youtube.com/feeds/api/users/electronicanstuff'
p526
sg96
S'related'
p527
sg70
S'application/atom+xml'
p528
sg19
(lp529
sbag1
(g88
g3
NtRp530
(dp531
g13
(dp532
sg65
Nsg15
Nsg92
Nsg93
Nsg94
S'https://www.youtube.com/playlist?list=PLbAVnhNl-sE4IKlzNLYNd_uWX1z7PrNFB'
p533
sg96
S'alternate'
p534
sg70
S'text/html'
p535
sg19
(lp536
sbag1
(g88
g3
NtRp537
(dp538
g13
(dp539
sg65
Nsg15
Nsg92
Nsg93
Nsg94
S'https://gdata.youtube.com/feeds/api/users/electronicanstuff/playlists/PLbAVnhNl-sE4IKlzNLYNd_uWX1z7PrNFB'
p540
sg96
S'self'
p541
sg70
S'application/atom+xml'
p542
sg19
(lp543
sbag1
(g88
g3
NtRp544
(dp545
g13
(dp546
sg65
Nsg15
Nsg92
Nsg93
Nsg94
S'https://gdata.youtube.com/feeds/api/users/electronicanstuff/playlists/PLbAVnhNl-sE4IKlzNLYNd_uWX1z7PrNFB'
p547
sg96
S'edit'
p548
sg70
S'application/atom+xml'
p549
sg19
(lp550
sbasg249
g1
(g250
g3
NtRp551
(dp552
g15
S'2013-07-07T17:04:54.000Z'
p553
sg13
(dp554
sg19
(lp555
sbsg256
(lp556
sg65
g1
(g66
g3
NtRp557
(dp558
g15
S'Pick Up'
p559
sg70
S'text'
p560
sg13
(dp561
sg19
(lp562
sbsg19
(lp563
g1
(g265
g3
NtRp564
(dp565
g268
(dp566
sg270
S'group'
p567
sg272
S'http://search.yahoo.com/mrss/'
p568
sg274
(lp569
g1
(g265
g3
NtRp570
(dp571
g268
(dp572
g279
S'https://i.ytimg.com/vi/8MVZfX2NRXM/default.jpg'
p573
sg281
S'120'
p574
sg283
S'90'
p575
sg285
S'default'
p576
ssg270
S'thumbnail'
p577
sg272
S'http://search.yahoo.com/mrss/'
p578
sg274
(lp579
sg15
Nsbag1
(g265
g3
NtRp580
(dp581
g268
(dp582
g279
S'https://i.ytimg.com/vi/8MVZfX2NRXM/mqdefault.jpg'
p583
sg281
S'320'
p584
sg283
S'180'
p585
sg285
S'mqdefault'
p586
ssg270
S'thumbnail'
p587
sg272
S'http://search.yahoo.com/mrss/'
p588
sg274
(lp589
sg15
Nsbag1
(g265
g3
NtRp590
(dp591
g268
(dp592
g279
S'https://i.ytimg.com/vi/8MVZfX2NRXM/hqdefault.jpg'
p593
sg281
S'480'
p594
sg283
S'360'
p595
sg285
S'hqdefault'
p596
ssg270
S'thumbnail'
p597
sg272
S'http://search.yahoo.com/mrss/'
p598
sg274
(lp599
sg15
Nsbag1
(g265
g3
NtRp600
(dp601
g268
(dp602
g313
S'0'
ssg270
S'duration'
p603
sg272
S'http://gdata.youtube.com/schemas/2007'
p604
sg274
(lp605
sg15
Nsbasg15
Nsbag1
(g265
g3
NtRp606
(dp607
g268
(dp608
sg270
S'playlistId'
p609
sg272
S'http://gdata.youtube.com/schemas/2007'
p610
sg274
(lp611
sg15
S'PLbAVnhNl-sE4IKlzNLYNd_uWX1z7PrNFB'
p612
sbasbag1
(g151
g3
NtRp613
(dp614
g6
(lp615
g1
(g8
g3
NtRp616
(dp617
g11
S'http://gdata.youtube.com/schemas/2007#playlistLink'
p618
sg13
(dp619
sg15
Nsg16
Nsg17
S'http://schemas.google.com/g/2005#kind'
p620
sg19
(lp621
sbasg161
Nsg21
g1
(g22
g3
NtRp622
(dp623
g15
S'2013-12-25T22:16:08.000Z'
p624
sg13
(dp625
sg19
(lp626
sbsg167
g1
(g30
g3
NtRp627
(dp628
g15
S'http://gdata.youtube.com/feeds/api/users/electronicanstuff/playlists/PLbAVnhNl-sE6X8hcVq7AuQIovrhwkIsuF'
p629
sg13
(dp630
sg19
(lp631
sbsg173
g1
(g174
g3
NtRp632
(dp633
g15
Nsg13
(dp634
sg19
(lp635
sbsg180
(lp636
g1
(g182
g3
NtRp637
(dp638
g185
Nsg186
Nsg13
(dp639
sg15
Nsg94
S'https://gdata.youtube.com/feeds/api/playlists/PLbAVnhNl-sE6X8hcVq7AuQIovrhwkIsuF'
p640
sg96
S'http://gdata.youtube.com/schemas/2007#playlist'
p641
sg190
S'17'
p642
sg19
(lp643
sbasg36
(lp644
g1
(g38
g3
NtRp645
(dp646
g13
(dp647
sg15
Nsg42
g1
(g43
g3
NtRp648
(dp649
g15
S'https://gdata.youtube.com/feeds/api/users/electronicaNstuff'
p650
sg13
(dp651
sg19
(lp652
sbsg49
g1
(g50
g3
NtRp653
(dp654
g15
S'electronicaNstuff'
p655
sg13
(dp656
sg19
(lp657
sbsg56
Nsg19
(lp658
sbasg15
Nsg74
Nsg207
Nsg208
Nsg209
g1
(g210
g3
NtRp659
(dp660
g213
Nsg19
(lp661
sg70
S'text'
p662
sg13
(dp663
sg15
Nsbsg218
Nsg13
(dp664
sg86
(lp665
g1
(g88
g3
NtRp666
(dp667
g13
(dp668
sg65
Nsg15
Nsg92
Nsg93
Nsg94
S'https://gdata.youtube.com/feeds/api/users/electronicanstuff'
p669
sg96
S'related'
p670
sg70
S'application/atom+xml'
p671
sg19
(lp672
sbag1
(g88
g3
NtRp673
(dp674
g13
(dp675
sg65
Nsg15
Nsg92
Nsg93
Nsg94
S'https://www.youtube.com/playlist?list=PLbAVnhNl-sE6X8hcVq7AuQIovrhwkIsuF'
p676
sg96
S'alternate'
p677
sg70
S'text/html'
p678
sg19
(lp679
sbag1
(g88
g3
NtRp680
(dp681
g13
(dp682
sg65
Nsg15
Nsg92
Nsg93
Nsg94
S'https://gdata.youtube.com/feeds/api/users/electronicanstuff/playlists/PLbAVnhNl-sE6X8hcVq7AuQIovrhwkIsuF'
p683
sg96
S'self'
p684
sg70
S'application/atom+xml'
p685
sg19
(lp686
sbag1
(g88
g3
NtRp687
(dp688
g13
(dp689
sg65
Nsg15
Nsg92
Nsg93
Nsg94
S'https://gdata.youtube.com/feeds/api/users/electronicanstuff/playlists/PLbAVnhNl-sE6X8hcVq7AuQIovrhwkIsuF'
p690
sg96
S'edit'
p691
sg70
S'application/atom+xml'
p692
sg19
(lp693
sbasg249
g1
(g250
g3
NtRp694
(dp695
g15
S'2013-03-20T06:04:12.000Z'
p696
sg13
(dp697
sg19
(lp698
sbsg256
(lp699
sg65
g1
(g66
g3
NtRp700
(dp701
g15
S'Epic'
p702
sg70
S'text'
p703
sg13
(dp704
sg19
(lp705
sbsg19
(lp706
g1
(g265
g3
NtRp707
(dp708
g268
(dp709
sg270
S'group'
p710
sg272
S'http://search.yahoo.com/mrss/'
p711
sg274
(lp712
g1
(g265
g3
NtRp713
(dp714
g268
(dp715
g279
S'https://i.ytimg.com/vi/4un7Jedpicg/default.jpg'
p716
sg281
S'120'
p717
sg283
S'90'
p718
sg285
S'default'
p719
ssg270
S'thumbnail'
p720
sg272
S'http://search.yahoo.com/mrss/'
p721
sg274
(lp722
sg15
Nsbag1
(g265
g3
NtRp723
(dp724
g268
(dp725
g279
S'https://i.ytimg.com/vi/4un7Jedpicg/mqdefault.jpg'
p726
sg281
S'320'
p727
sg283
S'180'
p728
sg285
S'mqdefault'
p729
ssg270
S'thumbnail'
p730
sg272
S'http://search.yahoo.com/mrss/'
p731
sg274
(lp732
sg15
Nsbag1
(g265
g3
NtRp733
(dp734
g268
(dp735
g279
S'https://i.ytimg.com/vi/4un7Jedpicg/hqdefault.jpg'
p736
sg281
S'480'
p737
sg283
S'360'
p738
sg285
S'hqdefault'
p739
ssg270
S'thumbnail'
p740
sg272
S'http://search.yahoo.com/mrss/'
p741
sg274
(lp742
sg15
Nsbag1
(g265
g3
NtRp743
(dp744
g268
(dp745
g313
S'0'
ssg270
S'duration'
p746
sg272
S'http://gdata.youtube.com/schemas/2007'
p747
sg274
(lp748
sg15
Nsbasg15
Nsbag1
(g265
g3
NtRp749
(dp750
g268
(dp751
sg270
S'playlistId'
p752
sg272
S'http://gdata.youtube.com/schemas/2007'
p753
sg274
(lp754
sg15
S'PLbAVnhNl-sE6X8hcVq7AuQIovrhwkIsuF'
p755
sbasbag1
(g151
g3
NtRp756
(dp757
g6
(lp758
g1
(g8
g3
NtRp759
(dp760
g11
S'http://gdata.youtube.com/schemas/2007#playlistLink'
p761
sg13
(dp762
sg15
Nsg16
Nsg17
S'http://schemas.google.com/g/2005#kind'
p763
sg19
(lp764
sbasg161
Nsg21
g1
(g22
g3
NtRp765
(dp766
g15
S'2013-12-25T00:41:50.000Z'
p767
sg13
(dp768
sg19
(lp769
sbsg167
g1
(g30
g3
NtRp770
(dp771
g15
S'http://gdata.youtube.com/feeds/api/users/electronicanstuff/playlists/PLbAVnhNl-sE40oDIHhjjp89RMzrPNvl6y'
p772
sg13
(dp773
sg19
(lp774
sbsg173
g1
(g174
g3
NtRp775
(dp776
g15
Nsg13
(dp777
sg19
(lp778
sbsg180
(lp779
g1
(g182
g3
NtRp780
(dp781
g185
Nsg186
Nsg13
(dp782
sg15
Nsg94
S'https://gdata.youtube.com/feeds/api/playlists/PLbAVnhNl-sE40oDIHhjjp89RMzrPNvl6y'
p783
sg96
S'http://gdata.youtube.com/schemas/2007#playlist'
p784
sg190
S'2'
sg19
(lp785
sbasg36
(lp786
g1
(g38
g3
NtRp787
(dp788
g13
(dp789
sg15
Nsg42
g1
(g43
g3
NtRp790
(dp791
g15
S'https://gdata.youtube.com/feeds/api/users/electronicaNstuff'
p792
sg13
(dp793
sg19
(lp794
sbsg49
g1
(g50
g3
NtRp795
(dp796
g15
S'electronicaNstuff'
p797
sg13
(dp798
sg19
(lp799
sbsg56
Nsg19
(lp800
sbasg15
Nsg74
Nsg207
Nsg208
Nsg209
g1
(g210
g3
NtRp801
(dp802
g213
Nsg19
(lp803
sg70
S'text'
p804
sg13
(dp805
sg15
Nsbsg218
Nsg13
(dp806
sg86
(lp807
g1
(g88
g3
NtRp808
(dp809
g13
(dp810
sg65
Nsg15
Nsg92
Nsg93
Nsg94
S'https://gdata.youtube.com/feeds/api/users/electronicanstuff'
p811
sg96
S'related'
p812
sg70
S'application/atom+xml'
p813
sg19
(lp814
sbag1
(g88
g3
NtRp815
(dp816
g13
(dp817
sg65
Nsg15
Nsg92
Nsg93
Nsg94
S'https://www.youtube.com/playlist?list=PLbAVnhNl-sE40oDIHhjjp89RMzrPNvl6y'
p818
sg96
S'alternate'
p819
sg70
S'text/html'
p820
sg19
(lp821
sbag1
(g88
g3
NtRp822
(dp823
g13
(dp824
sg65
Nsg15
Nsg92
Nsg93
Nsg94
S'https://gdata.youtube.com/feeds/api/users/electronicanstuff/playlists/PLbAVnhNl-sE40oDIHhjjp89RMzrPNvl6y'
p825
sg96
S'self'
p826
sg70
S'application/atom+xml'
p827
sg19
(lp828
sbag1
(g88
g3
NtRp829
(dp830
g13
(dp831
sg65
Nsg15
Nsg92
Nsg93
Nsg94
S'https://gdata.youtube.com/feeds/api/users/electronicanstuff/playlists/PLbAVnhNl-sE40oDIHhjjp89RMzrPNvl6y'
p832
sg96
S'edit'
p833
sg70
S'application/atom+xml'
p834
sg19
(lp835
sbasg249
g1
(g250
g3
NtRp836
(dp837
g15
S'2013-01-09T20:07:38.000Z'
p838
sg13
(dp839
sg19
(lp840
sbsg256
(lp841
sg65
g1
(g66
g3
NtRp842
(dp843
g15
S'Interviewing / Job Search'
p844
sg70
S'text'
p845
sg13
(dp846
sg19
(lp847
sbsg19
(lp848
g1
(g265
g3
NtRp849
(dp850
g268
(dp851
sg270
S'group'
p852
sg272
S'http://search.yahoo.com/mrss/'
p853
sg274
(lp854
g1
(g265
g3
NtRp855
(dp856
g268
(dp857
g279
S'https://i.ytimg.com/vi/Nlvp9yThI5Y/default.jpg'
p858
sg281
S'120'
p859
sg283
S'90'
p860
sg285
S'default'
p861
ssg270
S'thumbnail'
p862
sg272
S'http://search.yahoo.com/mrss/'
p863
sg274
(lp864
sg15
Nsbag1
(g265
g3
NtRp865
(dp866
g268
(dp867
g279
S'https://i.ytimg.com/vi/Nlvp9yThI5Y/mqdefault.jpg'
p868
sg281
S'320'
p869
sg283
S'180'
p870
sg285
S'mqdefault'
p871
ssg270
S'thumbnail'
p872
sg272
S'http://search.yahoo.com/mrss/'
p873
sg274
(lp874
sg15
Nsbag1
(g265
g3
NtRp875
(dp876
g268
(dp877
g279
S'https://i.ytimg.com/vi/Nlvp9yThI5Y/hqdefault.jpg'
p878
sg281
S'480'
p879
sg283
S'360'
p880
sg285
S'hqdefault'
p881
ssg270
S'thumbnail'
p882
sg272
S'http://search.yahoo.com/mrss/'
p883
sg274
(lp884
sg15
Nsbag1
(g265
g3
NtRp885
(dp886
g268
(dp887
g313
S'0'
ssg270
S'duration'
p888
sg272
S'http://gdata.youtube.com/schemas/2007'
p889
sg274
(lp890
sg15
Nsbasg15
Nsbag1
(g265
g3
NtRp891
(dp892
g268
(dp893
sg270
S'playlistId'
p894
sg272
S'http://gdata.youtube.com/schemas/2007'
p895
sg274
(lp896
sg15
S'PLbAVnhNl-sE40oDIHhjjp89RMzrPNvl6y'
p897
sbasbag1
(g151
g3
NtRp898
(dp899
g6
(lp900
g1
(g8
g3
NtRp901
(dp902
g11
S'http://gdata.youtube.com/schemas/2007#playlistLink'
p903
sg13
(dp904
sg15
Nsg16
Nsg17
S'http://schemas.google.com/g/2005#kind'
p905
sg19
(lp906
sbasg161
Nsg21
g1
(g22
g3
NtRp907
(dp908
g15
S'2013-02-20T09:09:02.000Z'
p909
sg13
(dp910
sg19
(lp911
sbsg167
g1
(g30
g3
NtRp912
(dp913
g15
S'http://gdata.youtube.com/feeds/api/users/electronicanstuff/playlists/PLbAVnhNl-sE6zTACbwRoP5AYLoqMSzEOL'
p914
sg13
(dp915
sg19
(lp916
sbsg173
g1
(g174
g3
NtRp917
(dp918
g15
Nsg13
(dp919
sg19
(lp920
sbsg180
(lp921
g1
(g182
g3
NtRp922
(dp923
g185
Nsg186
Nsg13
(dp924
sg15
Nsg94
S'https://gdata.youtube.com/feeds/api/playlists/PLbAVnhNl-sE6zTACbwRoP5AYLoqMSzEOL'
p925
sg96
S'http://gdata.youtube.com/schemas/2007#playlist'
p926
sg190
S'43'
p927
sg19
(lp928
sbasg36
(lp929
g1
(g38
g3
NtRp930
(dp931
g13
(dp932
sg15
Nsg42
g1
(g43
g3
NtRp933
(dp934
g15
S'https://gdata.youtube.com/feeds/api/users/electronicaNstuff'
p935
sg13
(dp936
sg19
(lp937
sbsg49
g1
(g50
g3
NtRp938
(dp939
g15
S'electronicaNstuff'
p940
sg13
(dp941
sg19
(lp942
sbsg56
Nsg19
(lp943
sbasg15
Nsg74
Nsg207
Nsg208
Nsg209
g1
(g210
g3
NtRp944
(dp945
g213
Nsg19
(lp946
sg70
S'text'
p947
sg13
(dp948
sg15
Nsbsg218
Nsg13
(dp949
sg86
(lp950
g1
(g88
g3
NtRp951
(dp952
g13
(dp953
sg65
Nsg15
Nsg92
Nsg93
Nsg94
S'https://gdata.youtube.com/feeds/api/users/electronicanstuff'
p954
sg96
S'related'
p955
sg70
S'application/atom+xml'
p956
sg19
(lp957
sbag1
(g88
g3
NtRp958
(dp959
g13
(dp960
sg65
Nsg15
Nsg92
Nsg93
Nsg94
S'https://www.youtube.com/playlist?list=PLbAVnhNl-sE6zTACbwRoP5AYLoqMSzEOL'
p961
sg96
S'alternate'
p962
sg70
S'text/html'
p963
sg19
(lp964
sbag1
(g88
g3
NtRp965
(dp966
g13
(dp967
sg65
Nsg15
Nsg92
Nsg93
Nsg94
S'https://gdata.youtube.com/feeds/api/users/electronicanstuff/playlists/PLbAVnhNl-sE6zTACbwRoP5AYLoqMSzEOL'
p968
sg96
S'self'
p969
sg70
S'application/atom+xml'
p970
sg19
(lp971
sbag1
(g88
g3
NtRp972
(dp973
g13
(dp974
sg65
Nsg15
Nsg92
Nsg93
Nsg94
S'https://gdata.youtube.com/feeds/api/users/electronicanstuff/playlists/PLbAVnhNl-sE6zTACbwRoP5AYLoqMSzEOL'
p975
sg96
S'edit'
p976
sg70
S'application/atom+xml'
p977
sg19
(lp978
sbasg249
g1
(g250
g3
NtRp979
(dp980
g15
S'2013-01-05T04:57:33.000Z'
p981
sg13
(dp982
sg19
(lp983
sbsg256
(lp984
sg65
g1
(g66
g3
NtRp985
(dp986
g15
S'Fat Loss'
p987
sg70
S'text'
p988
sg13
(dp989
sg19
(lp990
sbsg19
(lp991
g1
(g265
g3
NtRp992
(dp993
g268
(dp994
sg270
S'group'
p995
sg272
S'http://search.yahoo.com/mrss/'
p996
sg274
(lp997
g1
(g265
g3
NtRp998
(dp999
g268
(dp1000
g279
S'https://i.ytimg.com/vi/-UJHNZHbhiw/default.jpg'
p1001
sg281
S'120'
p1002
sg283
S'90'
p1003
sg285
S'default'
p1004
ssg270
S'thumbnail'
p1005
sg272
S'http://search.yahoo.com/mrss/'
p1006
sg274
(lp1007
sg15
Nsbag1
(g265
g3
NtRp1008
(dp1009
g268
(dp1010
g279
S'https://i.ytimg.com/vi/-UJHNZHbhiw/mqdefault.jpg'
p1011
sg281
S'320'
p1012
sg283
S'180'
p1013
sg285
S'mqdefault'
p1014
ssg270
S'thumbnail'
p1015
sg272
S'http://search.yahoo.com/mrss/'
p1016
sg274
(lp1017
sg15
Nsbag1
(g265
g3
NtRp1018
(dp1019
g268
(dp1020
g279
S'https://i.ytimg.com/vi/-UJHNZHbhiw/hqdefault.jpg'
p1021
sg281
S'480'
p1022
sg283
S'360'
p1023
sg285
S'hqdefault'
p1024
ssg270
S'thumbnail'
p1025
sg272
S'http://search.yahoo.com/mrss/'
p1026
sg274
(lp1027
sg15
Nsbag1
(g265
g3
NtRp1028
(dp1029
g268
(dp1030
g313
S'0'
ssg270
S'duration'
p1031
sg272
S'http://gdata.youtube.com/schemas/2007'
p1032
sg274
(lp1033
sg15
Nsbasg15
Nsbag1
(g265
g3
NtRp1034
(dp1035
g268
(dp1036
sg270
S'playlistId'
p1037
sg272
S'http://gdata.youtube.com/schemas/2007'
p1038
sg274
(lp1039
sg15
S'PLbAVnhNl-sE6zTACbwRoP5AYLoqMSzEOL'
p1040
sbasbag1
(g151
g3
NtRp1041
(dp1042
g6
(lp1043
g1
(g8
g3
NtRp1044
(dp1045
g11
S'http://gdata.youtube.com/schemas/2007#playlistLink'
p1046
sg13
(dp1047
sg15
Nsg16
Nsg17
S'http://schemas.google.com/g/2005#kind'
p1048
sg19
(lp1049
sbasg161
Nsg21
g1
(g22
g3
NtRp1050
(dp1051
g15
S'2013-02-04T05:06:26.000Z'
p1052
sg13
(dp1053
sg19
(lp1054
sbsg167
g1
(g30
g3
NtRp1055
(dp1056
g15
S'http://gdata.youtube.com/feeds/api/users/electronicanstuff/playlists/PLbAVnhNl-sE4KTH_CmxGDsAAZ44B-iHw5'
p1057
sg13
(dp1058
sg19
(lp1059
sbsg173
g1
(g174
g3
NtRp1060
(dp1061
g15
Nsg13
(dp1062
sg19
(lp1063
sbsg180
(lp1064
g1
(g182
g3
NtRp1065
(dp1066
g185
Nsg186
Nsg13
(dp1067
sg15
Nsg94
S'https://gdata.youtube.com/feeds/api/playlists/PLbAVnhNl-sE4KTH_CmxGDsAAZ44B-iHw5'
p1068
sg96
S'http://gdata.youtube.com/schemas/2007#playlist'
p1069
sg190
S'6'
sg19
(lp1070
sbasg36
(lp1071
g1
(g38
g3
NtRp1072
(dp1073
g13
(dp1074
sg15
Nsg42
g1
(g43
g3
NtRp1075
(dp1076
g15
S'https://gdata.youtube.com/feeds/api/users/electronicaNstuff'
p1077
sg13
(dp1078
sg19
(lp1079
sbsg49
g1
(g50
g3
NtRp1080
(dp1081
g15
S'electronicaNstuff'
p1082
sg13
(dp1083
sg19
(lp1084
sbsg56
Nsg19
(lp1085
sbasg15
Nsg74
Nsg207
Nsg208
Nsg209
g1
(g210
g3
NtRp1086
(dp1087
g213
Nsg19
(lp1088
sg70
S'text'
p1089
sg13
(dp1090
sg15
Nsbsg218
Nsg13
(dp1091
sg86
(lp1092
g1
(g88
g3
NtRp1093
(dp1094
g13
(dp1095
sg65
Nsg15
Nsg92
Nsg93
Nsg94
S'https://gdata.youtube.com/feeds/api/users/electronicanstuff'
p1096
sg96
S'related'
p1097
sg70
S'application/atom+xml'
p1098
sg19
(lp1099
sbag1
(g88
g3
NtRp1100
(dp1101
g13
(dp1102
sg65
Nsg15
Nsg92
Nsg93
Nsg94
S'https://www.youtube.com/playlist?list=PLbAVnhNl-sE4KTH_CmxGDsAAZ44B-iHw5'
p1103
sg96
S'alternate'
p1104
sg70
S'text/html'
p1105
sg19
(lp1106
sbag1
(g88
g3
NtRp1107
(dp1108
g13
(dp1109
sg65
Nsg15
Nsg92
Nsg93
Nsg94
S'https://gdata.youtube.com/feeds/api/users/electronicanstuff/playlists/PLbAVnhNl-sE4KTH_CmxGDsAAZ44B-iHw5'
p1110
sg96
S'self'
p1111
sg70
S'application/atom+xml'
p1112
sg19
(lp1113
sbag1
(g88
g3
NtRp1114
(dp1115
g13
(dp1116
sg65
Nsg15
Nsg92
Nsg93
Nsg94
S'https://gdata.youtube.com/feeds/api/users/electronicanstuff/playlists/PLbAVnhNl-sE4KTH_CmxGDsAAZ44B-iHw5'
p1117
sg96
S'edit'
p1118
sg70
S'application/atom+xml'
p1119
sg19
(lp1120
sbasg249
g1
(g250
g3
NtRp1121
(dp1122
g15
S'2012-12-27T08:51:08.000Z'
p1123
sg13
(dp1124
sg19
(lp1125
sbsg256
(lp1126
sg65
g1
(g66
g3
NtRp1127
(dp1128
g15
S'Halo 4 OST'
p1129
sg70
S'text'
p1130
sg13
(dp1131
sg19
(lp1132
sbsg19
(lp1133
g1
(g265
g3
NtRp1134
(dp1135
g268
(dp1136
sg270
S'group'
p1137
sg272
S'http://search.yahoo.com/mrss/'
p1138
sg274
(lp1139
g1
(g265
g3
NtRp1140
(dp1141
g268
(dp1142
g279
S'https://i.ytimg.com/vi/7squsU5JujQ/default.jpg'
p1143
sg281
S'120'
p1144
sg283
S'90'
p1145
sg285
S'default'
p1146
ssg270
S'thumbnail'
p1147
sg272
S'http://search.yahoo.com/mrss/'
p1148
sg274
(lp1149
sg15
Nsbag1
(g265
g3
NtRp1150
(dp1151
g268
(dp1152
g279
S'https://i.ytimg.com/vi/7squsU5JujQ/mqdefault.jpg'
p1153
sg281
S'320'
p1154
sg283
S'180'
p1155
sg285
S'mqdefault'
p1156
ssg270
S'thumbnail'
p1157
sg272
S'http://search.yahoo.com/mrss/'
p1158
sg274
(lp1159
sg15
Nsbag1
(g265
g3
NtRp1160
(dp1161
g268
(dp1162
g279
S'https://i.ytimg.com/vi/7squsU5JujQ/hqdefault.jpg'
p1163
sg281
S'480'
p1164
sg283
S'360'
p1165
sg285
S'hqdefault'
p1166
ssg270
S'thumbnail'
p1167
sg272
S'http://search.yahoo.com/mrss/'
p1168
sg274
(lp1169
sg15
Nsbag1
(g265
g3
NtRp1170
(dp1171
g268
(dp1172
g313
S'0'
ssg270
S'duration'
p1173
sg272
S'http://gdata.youtube.com/schemas/2007'
p1174
sg274
(lp1175
sg15
Nsbasg15
Nsbag1
(g265
g3
NtRp1176
(dp1177
g268
(dp1178
sg270
S'playlistId'
p1179
sg272
S'http://gdata.youtube.com/schemas/2007'
p1180
sg274
(lp1181
sg15
S'PLbAVnhNl-sE4KTH_CmxGDsAAZ44B-iHw5'
p1182
sbasbag1
(g151
g3
NtRp1183
(dp1184
g6
(lp1185
g1
(g8
g3
NtRp1186
(dp1187
g11
S'http://gdata.youtube.com/schemas/2007#playlistLink'
p1188
sg13
(dp1189
sg15
Nsg16
Nsg17
S'http://schemas.google.com/g/2005#kind'
p1190
sg19
(lp1191
sbasg161
Nsg21
g1
(g22
g3
NtRp1192
(dp1193
g15
S'2012-12-17T23:38:41.000Z'
p1194
sg13
(dp1195
sg19
(lp1196
sbsg167
g1
(g30
g3
NtRp1197
(dp1198
g15
S'http://gdata.youtube.com/feeds/api/users/electronicanstuff/playlists/PLbAVnhNl-sE4mBn6S47tjuR6FMRsuYep9'
p1199
sg13
(dp1200
sg19
(lp1201
sbsg173
g1
(g174
g3
NtRp1202
(dp1203
g15
Nsg13
(dp1204
sg19
(lp1205
sbsg180
(lp1206
g1
(g182
g3
NtRp1207
(dp1208
g185
Nsg186
Nsg13
(dp1209
sg15
Nsg94
S'https://gdata.youtube.com/feeds/api/playlists/PLbAVnhNl-sE4mBn6S47tjuR6FMRsuYep9'
p1210
sg96
S'http://gdata.youtube.com/schemas/2007#playlist'
p1211
sg190
S'18'
p1212
sg19
(lp1213
sbasg36
(lp1214
g1
(g38
g3
NtRp1215
(dp1216
g13
(dp1217
sg15
Nsg42
g1
(g43
g3
NtRp1218
(dp1219
g15
S'https://gdata.youtube.com/feeds/api/users/electronicaNstuff'
p1220
sg13
(dp1221
sg19
(lp1222
sbsg49
g1
(g50
g3
NtRp1223
(dp1224
g15
S'electronicaNstuff'
p1225
sg13
(dp1226
sg19
(lp1227
sbsg56
Nsg19
(lp1228
sbasg15
Nsg74
Nsg207
Nsg208
Nsg209
g1
(g210
g3
NtRp1229
(dp1230
g213
Nsg19
(lp1231
sg70
S'text'
p1232
sg13
(dp1233
sg15
Nsbsg218
Nsg13
(dp1234
sg86
(lp1235
g1
(g88
g3
NtRp1236
(dp1237
g13
(dp1238
sg65
Nsg15
Nsg92
Nsg93
Nsg94
S'https://gdata.youtube.com/feeds/api/users/electronicanstuff'
p1239
sg96
S'related'
p1240
sg70
S'application/atom+xml'
p1241
sg19
(lp1242
sbag1
(g88
g3
NtRp1243
(dp1244
g13
(dp1245
sg65
Nsg15
Nsg92
Nsg93
Nsg94
S'https://www.youtube.com/playlist?list=PLbAVnhNl-sE4mBn6S47tjuR6FMRsuYep9'
p1246
sg96
S'alternate'
p1247
sg70
S'text/html'
p1248
sg19
(lp1249
sbag1
(g88
g3
NtRp1250
(dp1251
g13
(dp1252
sg65
Nsg15
Nsg92
Nsg93
Nsg94
S'https://gdata.youtube.com/feeds/api/users/electronicanstuff/playlists/PLbAVnhNl-sE4mBn6S47tjuR6FMRsuYep9'
p1253
sg96
S'self'
p1254
sg70
S'application/atom+xml'
p1255
sg19
(lp1256
sbag1
(g88
g3
NtRp1257
(dp1258
g13
(dp1259
sg65
Nsg15
Nsg92
Nsg93
Nsg94
S'https://gdata.youtube.com/feeds/api/users/electronicanstuff/playlists/PLbAVnhNl-sE4mBn6S47tjuR6FMRsuYep9'
p1260
sg96
S'edit'
p1261
sg70
S'application/atom+xml'
p1262
sg19
(lp1263
sbasg249
g1
(g250
g3
NtRp1264
(dp1265
g15
S'2012-12-17T09:09:08.000Z'
p1266
sg13
(dp1267
sg19
(lp1268
sbsg256
(lp1269
sg65
g1
(g66
g3
NtRp1270
(dp1271
g15
S'Cowboy Bebop OST & Movie'
p1272
sg70
S'text'
p1273
sg13
(dp1274
sg19
(lp1275
sbsg19
(lp1276
g1
(g265
g3
NtRp1277
(dp1278
g268
(dp1279
sg270
S'group'
p1280
sg272
S'http://search.yahoo.com/mrss/'
p1281
sg274
(lp1282
g1
(g265
g3
NtRp1283
(dp1284
g268
(dp1285
g279
S'https://i.ytimg.com/vi/n2rVnRwW0h8/default.jpg'
p1286
sg281
S'120'
p1287
sg283
S'90'
p1288
sg285
S'default'
p1289
ssg270
S'thumbnail'
p1290
sg272
S'http://search.yahoo.com/mrss/'
p1291
sg274
(lp1292
sg15
Nsbag1
(g265
g3
NtRp1293
(dp1294
g268
(dp1295
g279
S'https://i.ytimg.com/vi/n2rVnRwW0h8/mqdefault.jpg'
p1296
sg281
S'320'
p1297
sg283
S'180'
p1298
sg285
S'mqdefault'
p1299
ssg270
S'thumbnail'
p1300
sg272
S'http://search.yahoo.com/mrss/'
p1301
sg274
(lp1302
sg15
Nsbag1
(g265
g3
NtRp1303
(dp1304
g268
(dp1305
g279
S'https://i.ytimg.com/vi/n2rVnRwW0h8/hqdefault.jpg'
p1306
sg281
S'480'
p1307
sg283
S'360'
p1308
sg285
S'hqdefault'
p1309
ssg270
S'thumbnail'
p1310
sg272
S'http://search.yahoo.com/mrss/'
p1311
sg274
(lp1312
sg15
Nsbag1
(g265
g3
NtRp1313
(dp1314
g268
(dp1315
g313
S'0'
ssg270
S'duration'
p1316
sg272
S'http://gdata.youtube.com/schemas/2007'
p1317
sg274
(lp1318
sg15
Nsbasg15
Nsbag1
(g265
g3
NtRp1319
(dp1320
g268
(dp1321
sg270
S'playlistId'
p1322
sg272
S'http://gdata.youtube.com/schemas/2007'
p1323
sg274
(lp1324
sg15
S'PLbAVnhNl-sE4mBn6S47tjuR6FMRsuYep9'
p1325
sbasbag1
(g151
g3
NtRp1326
(dp1327
g6
(lp1328
g1
(g8
g3
NtRp1329
(dp1330
g11
S'http://gdata.youtube.com/schemas/2007#playlistLink'
p1331
sg13
(dp1332
sg15
Nsg16
Nsg17
S'http://schemas.google.com/g/2005#kind'
p1333
sg19
(lp1334
sbasg161
Nsg21
g1
(g22
g3
NtRp1335
(dp1336
g15
S'2012-12-17T09:10:25.000Z'
p1337
sg13
(dp1338
sg19
(lp1339
sbsg167
g1
(g30
g3
NtRp1340
(dp1341
g15
S'http://gdata.youtube.com/feeds/api/users/electronicanstuff/playlists/PLbAVnhNl-sE7SwJFRUyeGXDgPjnaA3F5H'
p1342
sg13
(dp1343
sg19
(lp1344
sbsg173
g1
(g174
g3
NtRp1345
(dp1346
g15
Nsg13
(dp1347
sg19
(lp1348
sbsg180
(lp1349
g1
(g182
g3
NtRp1350
(dp1351
g185
Nsg186
Nsg13
(dp1352
sg15
Nsg94
S'https://gdata.youtube.com/feeds/api/playlists/PLbAVnhNl-sE7SwJFRUyeGXDgPjnaA3F5H'
p1353
sg96
S'http://gdata.youtube.com/schemas/2007#playlist'
p1354
sg190
S'2'
sg19
(lp1355
sbasg36
(lp1356
g1
(g38
g3
NtRp1357
(dp1358
g13
(dp1359
sg15
Nsg42
g1
(g43
g3
NtRp1360
(dp1361
g15
S'https://gdata.youtube.com/feeds/api/users/electronicaNstuff'
p1362
sg13
(dp1363
sg19
(lp1364
sbsg49
g1
(g50
g3
NtRp1365
(dp1366
g15
S'electronicaNstuff'
p1367
sg13
(dp1368
sg19
(lp1369
sbsg56
Nsg19
(lp1370
sbasg15
Nsg74
Nsg207
Nsg208
Nsg209
g1
(g210
g3
NtRp1371
(dp1372
g213
Nsg19
(lp1373
sg70
S'text'
p1374
sg13
(dp1375
sg15
Nsbsg218
Nsg13
(dp1376
sg86
(lp1377
g1
(g88
g3
NtRp1378
(dp1379
g13
(dp1380
sg65
Nsg15
Nsg92
Nsg93
Nsg94
S'https://gdata.youtube.com/feeds/api/users/electronicanstuff'
p1381
sg96
S'related'
p1382
sg70
S'application/atom+xml'
p1383
sg19
(lp1384
sbag1
(g88
g3
NtRp1385
(dp1386
g13
(dp1387
sg65
Nsg15
Nsg92
Nsg93
Nsg94
S'https://www.youtube.com/playlist?list=PLbAVnhNl-sE7SwJFRUyeGXDgPjnaA3F5H'
p1388
sg96
S'alternate'
p1389
sg70
S'text/html'
p1390
sg19
(lp1391
sbag1
(g88
g3
NtRp1392
(dp1393
g13
(dp1394
sg65
Nsg15
Nsg92
Nsg93
Nsg94
S'https://gdata.youtube.com/feeds/api/users/electronicanstuff/playlists/PLbAVnhNl-sE7SwJFRUyeGXDgPjnaA3F5H'
p1395
sg96
S'self'
p1396
sg70
S'application/atom+xml'
p1397
sg19
(lp1398
sbag1
(g88
g3
NtRp1399
(dp1400
g13
(dp1401
sg65
Nsg15
Nsg92
Nsg93
Nsg94
S'https://gdata.youtube.com/feeds/api/users/electronicanstuff/playlists/PLbAVnhNl-sE7SwJFRUyeGXDgPjnaA3F5H'
p1402
sg96
S'edit'
p1403
sg70
S'application/atom+xml'
p1404
sg19
(lp1405
sbasg249
g1
(g250
g3
NtRp1406
(dp1407
g15
S'2012-12-14T21:12:07.000Z'
p1408
sg13
(dp1409
sg19
(lp1410
sbsg256
(lp1411
sg65
g1
(g66
g3
NtRp1412
(dp1413
g15
S'Studying'
p1414
sg70
S'text'
p1415
sg13
(dp1416
sg19
(lp1417
sbsg19
(lp1418
g1
(g265
g3
NtRp1419
(dp1420
g268
(dp1421
sg270
S'group'
p1422
sg272
S'http://search.yahoo.com/mrss/'
p1423
sg274
(lp1424
g1
(g265
g3
NtRp1425
(dp1426
g268
(dp1427
g279
S'https://i.ytimg.com/vi/UAhRf3U50lM/default.jpg'
p1428
sg281
S'120'
p1429
sg283
S'90'
p1430
sg285
S'default'
p1431
ssg270
S'thumbnail'
p1432
sg272
S'http://search.yahoo.com/mrss/'
p1433
sg274
(lp1434
sg15
Nsbag1
(g265
g3
NtRp1435
(dp1436
g268
(dp1437
g279
S'https://i.ytimg.com/vi/UAhRf3U50lM/mqdefault.jpg'
p1438
sg281
S'320'
p1439
sg283
S'180'
p1440
sg285
S'mqdefault'
p1441
ssg270
S'thumbnail'
p1442
sg272
S'http://search.yahoo.com/mrss/'
p1443
sg274
(lp1444
sg15
Nsbag1
(g265
g3
NtRp1445
(dp1446
g268
(dp1447
g279
S'https://i.ytimg.com/vi/UAhRf3U50lM/hqdefault.jpg'
p1448
sg281
S'480'
p1449
sg283
S'360'
p1450
sg285
S'hqdefault'
p1451
ssg270
S'thumbnail'
p1452
sg272
S'http://search.yahoo.com/mrss/'
p1453
sg274
(lp1454
sg15
Nsbag1
(g265
g3
NtRp1455
(dp1456
g268
(dp1457
g313
S'0'
ssg270
S'duration'
p1458
sg272
S'http://gdata.youtube.com/schemas/2007'
p1459
sg274
(lp1460
sg15
Nsbasg15
Nsbag1
(g265
g3
NtRp1461
(dp1462
g268
(dp1463
sg270
S'playlistId'
p1464
sg272
S'http://gdata.youtube.com/schemas/2007'
p1465
sg274
(lp1466
sg15
S'PLbAVnhNl-sE7SwJFRUyeGXDgPjnaA3F5H'
p1467
sbasbag1
(g151
g3
NtRp1468
(dp1469
g6
(lp1470
g1
(g8
g3
NtRp1471
(dp1472
g11
S'http://gdata.youtube.com/schemas/2007#playlistLink'
p1473
sg13
(dp1474
sg15
Nsg16
Nsg17
S'http://schemas.google.com/g/2005#kind'
p1475
sg19
(lp1476
sbasg161
Nsg21
g1
(g22
g3
NtRp1477
(dp1478
g15
S'2012-12-12T03:25:57.000Z'
p1479
sg13
(dp1480
sg19
(lp1481
sbsg167
g1
(g30
g3
NtRp1482
(dp1483
g15
S'http://gdata.youtube.com/feeds/api/users/electronicanstuff/playlists/PLbAVnhNl-sE7Qpltbv3JRyiI-nwX_xNXG'
p1484
sg13
(dp1485
sg19
(lp1486
sbsg173
g1
(g174
g3
NtRp1487
(dp1488
g15
Nsg13
(dp1489
sg19
(lp1490
sbsg180
(lp1491
g1
(g182
g3
NtRp1492
(dp1493
g185
Nsg186
Nsg13
(dp1494
sg15
Nsg94
S'https://gdata.youtube.com/feeds/api/playlists/PLbAVnhNl-sE7Qpltbv3JRyiI-nwX_xNXG'
p1495
sg96
S'http://gdata.youtube.com/schemas/2007#playlist'
p1496
sg190
S'1'
sg19
(lp1497
sbasg36
(lp1498
g1
(g38
g3
NtRp1499
(dp1500
g13
(dp1501
sg15
Nsg42
g1
(g43
g3
NtRp1502
(dp1503
g15
S'https://gdata.youtube.com/feeds/api/users/electronicaNstuff'
p1504
sg13
(dp1505
sg19
(lp1506
sbsg49
g1
(g50
g3
NtRp1507
(dp1508
g15
S'electronicaNstuff'
p1509
sg13
(dp1510
sg19
(lp1511
sbsg56
Nsg19
(lp1512
sbasg15
Nsg74
Nsg207
Nsg208
Nsg209
g1
(g210
g3
NtRp1513
(dp1514
g213
Nsg19
(lp1515
sg70
S'text'
p1516
sg13
(dp1517
sg15
Nsbsg218
Nsg13
(dp1518
sg86
(lp1519
g1
(g88
g3
NtRp1520
(dp1521
g13
(dp1522
sg65
Nsg15
Nsg92
Nsg93
Nsg94
S'https://gdata.youtube.com/feeds/api/users/electronicanstuff'
p1523
sg96
S'related'
p1524
sg70
S'application/atom+xml'
p1525
sg19
(lp1526
sbag1
(g88
g3
NtRp1527
(dp1528
g13
(dp1529
sg65
Nsg15
Nsg92
Nsg93
Nsg94
S'https://www.youtube.com/playlist?list=PLbAVnhNl-sE7Qpltbv3JRyiI-nwX_xNXG'
p1530
sg96
S'alternate'
p1531
sg70
S'text/html'
p1532
sg19
(lp1533
sbag1
(g88
g3
NtRp1534
(dp1535
g13
(dp1536
sg65
Nsg15
Nsg92
Nsg93
Nsg94
S'https://gdata.youtube.com/feeds/api/users/electronicanstuff/playlists/PLbAVnhNl-sE7Qpltbv3JRyiI-nwX_xNXG'
p1537
sg96
S'self'
p1538
sg70
S'application/atom+xml'
p1539
sg19
(lp1540
sbag1
(g88
g3
NtRp1541
(dp1542
g13
(dp1543
sg65
Nsg15
Nsg92
Nsg93
Nsg94
S'https://gdata.youtube.com/feeds/api/users/electronicanstuff/playlists/PLbAVnhNl-sE7Qpltbv3JRyiI-nwX_xNXG'
p1544
sg96
S'edit'
p1545
sg70
S'application/atom+xml'
p1546
sg19
(lp1547
sbasg249
g1
(g250
g3
NtRp1548
(dp1549
g15
S'2012-12-12T03:25:56.000Z'
p1550
sg13
(dp1551
sg19
(lp1552
sbsg256
(lp1553
sg65
g1
(g66
g3
NtRp1554
(dp1555
g15
S'Bulking'
p1556
sg70
S'text'
p1557
sg13
(dp1558
sg19
(lp1559
sbsg19
(lp1560
g1
(g265
g3
NtRp1561
(dp1562
g268
(dp1563
sg270
S'group'
p1564
sg272
S'http://search.yahoo.com/mrss/'
p1565
sg274
(lp1566
g1
(g265
g3
NtRp1567
(dp1568
g268
(dp1569
g279
S'https://i.ytimg.com/vi/Faz4QQQPJQY/default.jpg'
p1570
sg281
S'120'
p1571
sg283
S'90'
p1572
sg285
S'default'
p1573
ssg270
S'thumbnail'
p1574
sg272
S'http://search.yahoo.com/mrss/'
p1575
sg274
(lp1576
sg15
Nsbag1
(g265
g3
NtRp1577
(dp1578
g268
(dp1579
g279
S'https://i.ytimg.com/vi/Faz4QQQPJQY/mqdefault.jpg'
p1580
sg281
S'320'
p1581
sg283
S'180'
p1582
sg285
S'mqdefault'
p1583
ssg270
S'thumbnail'
p1584
sg272
S'http://search.yahoo.com/mrss/'
p1585
sg274
(lp1586
sg15
Nsbag1
(g265
g3
NtRp1587
(dp1588
g268
(dp1589
g279
S'https://i.ytimg.com/vi/Faz4QQQPJQY/hqdefault.jpg'
p1590
sg281
S'480'
p1591
sg283
S'360'
p1592
sg285
S'hqdefault'
p1593
ssg270
S'thumbnail'
p1594
sg272
S'http://search.yahoo.com/mrss/'
p1595
sg274
(lp1596
sg15
Nsbag1
(g265
g3
NtRp1597
(dp1598
g268
(dp1599
g313
S'0'
ssg270
S'duration'
p1600
sg272
S'http://gdata.youtube.com/schemas/2007'
p1601
sg274
(lp1602
sg15
Nsbasg15
Nsbag1
(g265
g3
NtRp1603
(dp1604
g268
(dp1605
sg270
S'playlistId'
p1606
sg272
S'http://gdata.youtube.com/schemas/2007'
p1607
sg274
(lp1608
sg15
S'PLbAVnhNl-sE7Qpltbv3JRyiI-nwX_xNXG'
p1609
sbasbag1
(g151
g3
NtRp1610
(dp1611
g6
(lp1612
g1
(g8
g3
NtRp1613
(dp1614
g11
S'http://gdata.youtube.com/schemas/2007#playlistLink'
p1615
sg13
(dp1616
sg15
Nsg16
Nsg17
S'http://schemas.google.com/g/2005#kind'
p1617
sg19
(lp1618
sbasg161
Nsg21
g1
(g22
g3
NtRp1619
(dp1620
g15
S'2012-12-05T03:05:14.000Z'
p1621
sg13
(dp1622
sg19
(lp1623
sbsg167
g1
(g30
g3
NtRp1624
(dp1625
g15
S'http://gdata.youtube.com/feeds/api/users/electronicanstuff/playlists/PLbAVnhNl-sE4j8XtTNySnLmHXRanVNez3'
p1626
sg13
(dp1627
sg19
(lp1628
sbsg173
g1
(g174
g3
NtRp1629
(dp1630
g15
Nsg13
(dp1631
sg19
(lp1632
sbsg180
(lp1633
g1
(g182
g3
NtRp1634
(dp1635
g185
Nsg186
Nsg13
(dp1636
sg15
Nsg94
S'https://gdata.youtube.com/feeds/api/playlists/PLbAVnhNl-sE4j8XtTNySnLmHXRanVNez3'
p1637
sg96
S'http://gdata.youtube.com/schemas/2007#playlist'
p1638
sg190
S'49'
p1639
sg19
(lp1640
sbasg36
(lp1641
g1
(g38
g3
NtRp1642
(dp1643
g13
(dp1644
sg15
Nsg42
g1
(g43
g3
NtRp1645
(dp1646
g15
S'https://gdata.youtube.com/feeds/api/users/electronicaNstuff'
p1647
sg13
(dp1648
sg19
(lp1649
sbsg49
g1
(g50
g3
NtRp1650
(dp1651
g15
S'electronicaNstuff'
p1652
sg13
(dp1653
sg19
(lp1654
sbsg56
Nsg19
(lp1655
sbasg15
Nsg74
Nsg207
Nsg208
Nsg209
g1
(g210
g3
NtRp1656
(dp1657
g213
Nsg19
(lp1658
sg70
S'text'
p1659
sg13
(dp1660
sg15
Nsbsg218
Nsg13
(dp1661
sg86
(lp1662
g1
(g88
g3
NtRp1663
(dp1664
g13
(dp1665
sg65
Nsg15
Nsg92
Nsg93
Nsg94
S'https://gdata.youtube.com/feeds/api/users/electronicanstuff'
p1666
sg96
S'related'
p1667
sg70
S'application/atom+xml'
p1668
sg19
(lp1669
sbag1
(g88
g3
NtRp1670
(dp1671
g13
(dp1672
sg65
Nsg15
Nsg92
Nsg93
Nsg94
S'https://www.youtube.com/playlist?list=PLbAVnhNl-sE4j8XtTNySnLmHXRanVNez3'
p1673
sg96
S'alternate'
p1674
sg70
S'text/html'
p1675
sg19
(lp1676
sbag1
(g88
g3
NtRp1677
(dp1678
g13
(dp1679
sg65
Nsg15
Nsg92
Nsg93
Nsg94
S'https://gdata.youtube.com/feeds/api/users/electronicanstuff/playlists/PLbAVnhNl-sE4j8XtTNySnLmHXRanVNez3'
p1680
sg96
S'self'
p1681
sg70
S'application/atom+xml'
p1682
sg19
(lp1683
sbag1
(g88
g3
NtRp1684
(dp1685
g13
(dp1686
sg65
Nsg15
Nsg92
Nsg93
Nsg94
S'https://gdata.youtube.com/feeds/api/users/electronicanstuff/playlists/PLbAVnhNl-sE4j8XtTNySnLmHXRanVNez3'
p1687
sg96
S'edit'
p1688
sg70
S'application/atom+xml'
p1689
sg19
(lp1690
sbasg249
g1
(g250
g3
NtRp1691
(dp1692
g15
S'2012-12-05T03:05:13.000Z'
p1693
sg13
(dp1694
sg19
(lp1695
sbsg256
(lp1696
sg65
g1
(g66
g3
NtRp1697
(dp1698
g15
S'Jacques P\xc3\xa9pin: More Fast Food My Way'
p1699
sg70
S'text'
p1700
sg13
(dp1701
sg19
(lp1702
sbsg19
(lp1703
g1
(g265
g3
NtRp1704
(dp1705
g268
(dp1706
sg270
S'group'
p1707
sg272
S'http://search.yahoo.com/mrss/'
p1708
sg274
(lp1709
g1
(g265
g3
NtRp1710
(dp1711
g268
(dp1712
g279
S'https://i.ytimg.com/vi/Ysm-LEEb_K4/default.jpg'
p1713
sg281
S'120'
p1714
sg283
S'90'
p1715
sg285
S'default'
p1716
ssg270
S'thumbnail'
p1717
sg272
S'http://search.yahoo.com/mrss/'
p1718
sg274
(lp1719
sg15
Nsbag1
(g265
g3
NtRp1720
(dp1721
g268
(dp1722
g279
S'https://i.ytimg.com/vi/Ysm-LEEb_K4/mqdefault.jpg'
p1723
sg281
S'320'
p1724
sg283
S'180'
p1725
sg285
S'mqdefault'
p1726
ssg270
S'thumbnail'
p1727
sg272
S'http://search.yahoo.com/mrss/'
p1728
sg274
(lp1729
sg15
Nsbag1
(g265
g3
NtRp1730
(dp1731
g268
(dp1732
g279
S'https://i.ytimg.com/vi/Ysm-LEEb_K4/hqdefault.jpg'
p1733
sg281
S'480'
p1734
sg283
S'360'
p1735
sg285
S'hqdefault'
p1736
ssg270
S'thumbnail'
p1737
sg272
S'http://search.yahoo.com/mrss/'
p1738
sg274
(lp1739
sg15
Nsbag1
(g265
g3
NtRp1740
(dp1741
g268
(dp1742
g313
S'0'
ssg270
S'duration'
p1743
sg272
S'http://gdata.youtube.com/schemas/2007'
p1744
sg274
(lp1745
sg15
Nsbasg15
Nsbag1
(g265
g3
NtRp1746
(dp1747
g268
(dp1748
sg270
S'playlistId'
p1749
sg272
S'http://gdata.youtube.com/schemas/2007'
p1750
sg274
(lp1751
sg15
S'PLbAVnhNl-sE4j8XtTNySnLmHXRanVNez3'
p1752
sbasbag1
(g151
g3
NtRp1753
(dp1754
g6
(lp1755
g1
(g8
g3
NtRp1756
(dp1757
g11
S'http://gdata.youtube.com/schemas/2007#playlistLink'
p1758
sg13
(dp1759
sg15
Nsg16
Nsg17
S'http://schemas.google.com/g/2005#kind'
p1760
sg19
(lp1761
sbasg161
Nsg21
g1
(g22
g3
NtRp1762
(dp1763
g15
S'2012-12-03T05:23:52.000Z'
p1764
sg13
(dp1765
sg19
(lp1766
sbsg167
g1
(g30
g3
NtRp1767
(dp1768
g15
S'http://gdata.youtube.com/feeds/api/users/electronicanstuff/playlists/PLbAVnhNl-sE5WzjgSwpsi7-wRH5BNauke'
p1769
sg13
(dp1770
sg19
(lp1771
sbsg173
g1
(g174
g3
NtRp1772
(dp1773
g15
Nsg13
(dp1774
sg19
(lp1775
sbsg180
(lp1776
g1
(g182
g3
NtRp1777
(dp1778
g185
Nsg186
Nsg13
(dp1779
sg15
Nsg94
S'https://gdata.youtube.com/feeds/api/playlists/PLbAVnhNl-sE5WzjgSwpsi7-wRH5BNauke'
p1780
sg96
S'http://gdata.youtube.com/schemas/2007#playlist'
p1781
sg190
S'26'
p1782
sg19
(lp1783
sbasg36
(lp1784
g1
(g38
g3
NtRp1785
(dp1786
g13
(dp1787
sg15
Nsg42
g1
(g43
g3
NtRp1788
(dp1789
g15
S'https://gdata.youtube.com/feeds/api/users/electronicaNstuff'
p1790
sg13
(dp1791
sg19
(lp1792
sbsg49
g1
(g50
g3
NtRp1793
(dp1794
g15
S'electronicaNstuff'
p1795
sg13
(dp1796
sg19
(lp1797
sbsg56
Nsg19
(lp1798
sbasg15
Nsg74
Nsg207
Nsg208
Nsg209
g1
(g210
g3
NtRp1799
(dp1800
g213
Nsg19
(lp1801
sg70
S'text'
p1802
sg13
(dp1803
sg15
Nsbsg218
Nsg13
(dp1804
sg86
(lp1805
g1
(g88
g3
NtRp1806
(dp1807
g13
(dp1808
sg65
Nsg15
Nsg92
Nsg93
Nsg94
S'https://gdata.youtube.com/feeds/api/users/electronicanstuff'
p1809
sg96
S'related'
p1810
sg70
S'application/atom+xml'
p1811
sg19
(lp1812
sbag1
(g88
g3
NtRp1813
(dp1814
g13
(dp1815
sg65
Nsg15
Nsg92
Nsg93
Nsg94
S'https://www.youtube.com/playlist?list=PLbAVnhNl-sE5WzjgSwpsi7-wRH5BNauke'
p1816
sg96
S'alternate'
p1817
sg70
S'text/html'
p1818
sg19
(lp1819
sbag1
(g88
g3
NtRp1820
(dp1821
g13
(dp1822
sg65
Nsg15
Nsg92
Nsg93
Nsg94
S'https://gdata.youtube.com/feeds/api/users/electronicanstuff/playlists/PLbAVnhNl-sE5WzjgSwpsi7-wRH5BNauke'
p1823
sg96
S'self'
p1824
sg70
S'application/atom+xml'
p1825
sg19
(lp1826
sbag1
(g88
g3
NtRp1827
(dp1828
g13
(dp1829
sg65
Nsg15
Nsg92
Nsg93
Nsg94
S'https://gdata.youtube.com/feeds/api/users/electronicanstuff/playlists/PLbAVnhNl-sE5WzjgSwpsi7-wRH5BNauke'
p1830
sg96
S'edit'
p1831
sg70
S'application/atom+xml'
p1832
sg19
(lp1833
sbasg249
g1
(g250
g3
NtRp1834
(dp1835
g15
S'2012-12-03T05:23:51.000Z'
p1836
sg13
(dp1837
sg19
(lp1838
sbsg256
(lp1839
sg65
g1
(g66
g3
NtRp1840
(dp1841
g15
S'Finance'
p1842
sg70
S'text'
p1843
sg13
(dp1844
sg19
(lp1845
sbsg19
(lp1846
g1
(g265
g3
NtRp1847
(dp1848
g268
(dp1849
sg270
S'group'
p1850
sg272
S'http://search.yahoo.com/mrss/'
p1851
sg274
(lp1852
g1
(g265
g3
NtRp1853
(dp1854
g268
(dp1855
g279
S'https://i.ytimg.com/vi/vTs2IQ8OefQ/default.jpg'
p1856
sg281
S'120'
p1857
sg283
S'90'
p1858
sg285
S'default'
p1859
ssg270
S'thumbnail'
p1860
sg272
S'http://search.yahoo.com/mrss/'
p1861
sg274
(lp1862
sg15
Nsbag1
(g265
g3
NtRp1863
(dp1864
g268
(dp1865
g279
S'https://i.ytimg.com/vi/vTs2IQ8OefQ/mqdefault.jpg'
p1866
sg281
S'320'
p1867
sg283
S'180'
p1868
sg285
S'mqdefault'
p1869
ssg270
S'thumbnail'
p1870
sg272
S'http://search.yahoo.com/mrss/'
p1871
sg274
(lp1872
sg15
Nsbag1
(g265
g3
NtRp1873
(dp1874
g268
(dp1875
g279
S'https://i.ytimg.com/vi/vTs2IQ8OefQ/hqdefault.jpg'
p1876
sg281
S'480'
p1877
sg283
S'360'
p1878
sg285
S'hqdefault'
p1879
ssg270
S'thumbnail'
p1880
sg272
S'http://search.yahoo.com/mrss/'
p1881
sg274
(lp1882
sg15
Nsbag1
(g265
g3
NtRp1883
(dp1884
g268
(dp1885
g313
S'0'
ssg270
S'duration'
p1886
sg272
S'http://gdata.youtube.com/schemas/2007'
p1887
sg274
(lp1888
sg15
Nsbasg15
Nsbag1
(g265
g3
NtRp1889
(dp1890
g268
(dp1891
sg270
S'playlistId'
p1892
sg272
S'http://gdata.youtube.com/schemas/2007'
p1893
sg274
(lp1894
sg15
S'PLbAVnhNl-sE5WzjgSwpsi7-wRH5BNauke'
p1895
sbasbag1
(g151
g3
NtRp1896
(dp1897
g6
(lp1898
g1
(g8
g3
NtRp1899
(dp1900
g11
S'http://gdata.youtube.com/schemas/2007#playlistLink'
p1901
sg13
(dp1902
sg15
Nsg16
Nsg17
S'http://schemas.google.com/g/2005#kind'
p1903
sg19
(lp1904
sbasg161
Nsg21
g1
(g22
g3
NtRp1905
(dp1906
g15
S'2012-12-03T05:23:15.000Z'
p1907
sg13
(dp1908
sg19
(lp1909
sbsg167
g1
(g30
g3
NtRp1910
(dp1911
g15
S'http://gdata.youtube.com/feeds/api/users/electronicanstuff/playlists/PLbAVnhNl-sE6UkX7DyaDje7Znna3tJqOq'
p1912
sg13
(dp1913
sg19
(lp1914
sbsg173
g1
(g174
g3
NtRp1915
(dp1916
g15
Nsg13
(dp1917
sg19
(lp1918
sbsg180
(lp1919
g1
(g182
g3
NtRp1920
(dp1921
g185
Nsg186
Nsg13
(dp1922
sg15
Nsg94
S'https://gdata.youtube.com/feeds/api/playlists/PLbAVnhNl-sE6UkX7DyaDje7Znna3tJqOq'
p1923
sg96
S'http://gdata.youtube.com/schemas/2007#playlist'
p1924
sg190
S'25'
p1925
sg19
(lp1926
sbasg36
(lp1927
g1
(g38
g3
NtRp1928
(dp1929
g13
(dp1930
sg15
Nsg42
g1
(g43
g3
NtRp1931
(dp1932
g15
S'https://gdata.youtube.com/feeds/api/users/electronicaNstuff'
p1933
sg13
(dp1934
sg19
(lp1935
sbsg49
g1
(g50
g3
NtRp1936
(dp1937
g15
S'electronicaNstuff'
p1938
sg13
(dp1939
sg19
(lp1940
sbsg56
Nsg19
(lp1941
sbasg15
Nsg74
Nsg207
Nsg208
Nsg209
g1
(g210
g3
NtRp1942
(dp1943
g213
Nsg19
(lp1944
sg70
S'text'
p1945
sg13
(dp1946
sg15
Nsbsg218
Nsg13
(dp1947
sg86
(lp1948
g1
(g88
g3
NtRp1949
(dp1950
g13
(dp1951
sg65
Nsg15
Nsg92
Nsg93
Nsg94
S'https://gdata.youtube.com/feeds/api/users/electronicanstuff'
p1952
sg96
S'related'
p1953
sg70
S'application/atom+xml'
p1954
sg19
(lp1955
sbag1
(g88
g3
NtRp1956
(dp1957
g13
(dp1958
sg65
Nsg15
Nsg92
Nsg93
Nsg94
S'https://www.youtube.com/playlist?list=PLbAVnhNl-sE6UkX7DyaDje7Znna3tJqOq'
p1959
sg96
S'alternate'
p1960
sg70
S'text/html'
p1961
sg19
(lp1962
sbag1
(g88
g3
NtRp1963
(dp1964
g13
(dp1965
sg65
Nsg15
Nsg92
Nsg93
Nsg94
S'https://gdata.youtube.com/feeds/api/users/electronicanstuff/playlists/PLbAVnhNl-sE6UkX7DyaDje7Znna3tJqOq'
p1966
sg96
S'self'
p1967
sg70
S'application/atom+xml'
p1968
sg19
(lp1969
sbag1
(g88
g3
NtRp1970
(dp1971
g13
(dp1972
sg65
Nsg15
Nsg92
Nsg93
Nsg94
S'https://gdata.youtube.com/feeds/api/users/electronicanstuff/playlists/PLbAVnhNl-sE6UkX7DyaDje7Znna3tJqOq'
p1973
sg96
S'edit'
p1974
sg70
S'application/atom+xml'
p1975
sg19
(lp1976
sbasg249
g1
(g250
g3
NtRp1977
(dp1978
g15
S'2012-12-03T05:23:14.000Z'
p1979
sg13
(dp1980
sg19
(lp1981
sbsg256
(lp1982
sg65
g1
(g66
g3
NtRp1983
(dp1984
g15
S'Physics II'
p1985
sg70
S'text'
p1986
sg13
(dp1987
sg19
(lp1988
sbsg19
(lp1989
g1
(g265
g3
NtRp1990
(dp1991
g268
(dp1992
sg270
S'group'
p1993
sg272
S'http://search.yahoo.com/mrss/'
p1994
sg274
(lp1995
g1
(g265
g3
NtRp1996
(dp1997
g268
(dp1998
g279
S'https://i.ytimg.com/vi/NK-BxowMIfg/default.jpg'
p1999
sg281
S'120'
p2000
sg283
S'90'
p2001
sg285
S'default'
p2002
ssg270
S'thumbnail'
p2003
sg272
S'http://search.yahoo.com/mrss/'
p2004
sg274
(lp2005
sg15
Nsbag1
(g265
g3
NtRp2006
(dp2007
g268
(dp2008
g279
S'https://i.ytimg.com/vi/NK-BxowMIfg/mqdefault.jpg'
p2009
sg281
S'320'
p2010
sg283
S'180'
p2011
sg285
S'mqdefault'
p2012
ssg270
S'thumbnail'
p2013
sg272
S'http://search.yahoo.com/mrss/'
p2014
sg274
(lp2015
sg15
Nsbag1
(g265
g3
NtRp2016
(dp2017
g268
(dp2018
g279
S'https://i.ytimg.com/vi/NK-BxowMIfg/hqdefault.jpg'
p2019
sg281
S'480'
p2020
sg283
S'360'
p2021
sg285
S'hqdefault'
p2022
ssg270
S'thumbnail'
p2023
sg272
S'http://search.yahoo.com/mrss/'
p2024
sg274
(lp2025
sg15
Nsbag1
(g265
g3
NtRp2026
(dp2027
g268
(dp2028
g313
S'0'
ssg270
S'duration'
p2029
sg272
S'http://gdata.youtube.com/schemas/2007'
p2030
sg274
(lp2031
sg15
Nsbasg15
Nsbag1
(g265
g3
NtRp2032
(dp2033
g268
(dp2034
sg270
S'playlistId'
p2035
sg272
S'http://gdata.youtube.com/schemas/2007'
p2036
sg274
(lp2037
sg15
S'PLbAVnhNl-sE6UkX7DyaDje7Znna3tJqOq'
p2038
sbasbag1
(g151
g3
NtRp2039
(dp2040
g6
(lp2041
g1
(g8
g3
NtRp2042
(dp2043
g11
S'http://gdata.youtube.com/schemas/2007#playlistLink'
p2044
sg13
(dp2045
sg15
Nsg16
Nsg17
S'http://schemas.google.com/g/2005#kind'
p2046
sg19
(lp2047
sbasg161
Nsg21
g1
(g22
g3
NtRp2048
(dp2049
g15
S'2012-12-03T05:23:04.000Z'
p2050
sg13
(dp2051
sg19
(lp2052
sbsg167
g1
(g30
g3
NtRp2053
(dp2054
g15
S'http://gdata.youtube.com/feeds/api/users/electronicanstuff/playlists/PLbAVnhNl-sE64gmOAz5SaBhOB1CXQiX_b'
p2055
sg13
(dp2056
sg19
(lp2057
sbsg173
g1
(g174
g3
NtRp2058
(dp2059
g15
Nsg13
(dp2060
sg19
(lp2061
sbsg180
(lp2062
g1
(g182
g3
NtRp2063
(dp2064
g185
Nsg186
Nsg13
(dp2065
sg15
Nsg94
S'https://gdata.youtube.com/feeds/api/playlists/PLbAVnhNl-sE64gmOAz5SaBhOB1CXQiX_b'
p2066
sg96
S'http://gdata.youtube.com/schemas/2007#playlist'
p2067
sg190
S'24'
p2068
sg19
(lp2069
sbasg36
(lp2070
g1
(g38
g3
NtRp2071
(dp2072
g13
(dp2073
sg15
Nsg42
g1
(g43
g3
NtRp2074
(dp2075
g15
S'https://gdata.youtube.com/feeds/api/users/electronicaNstuff'
p2076
sg13
(dp2077
sg19
(lp2078
sbsg49
g1
(g50
g3
NtRp2079
(dp2080
g15
S'electronicaNstuff'
p2081
sg13
(dp2082
sg19
(lp2083
sbsg56
Nsg19
(lp2084
sbasg15
Nsg74
Nsg207
Nsg208
Nsg209
g1
(g210
g3
NtRp2085
(dp2086
g213
Nsg19
(lp2087
sg70
S'text'
p2088
sg13
(dp2089
sg15
Nsbsg218
Nsg13
(dp2090
sg86
(lp2091
g1
(g88
g3
NtRp2092
(dp2093
g13
(dp2094
sg65
Nsg15
Nsg92
Nsg93
Nsg94
S'https://gdata.youtube.com/feeds/api/users/electronicanstuff'
p2095
sg96
S'related'
p2096
sg70
S'application/atom+xml'
p2097
sg19
(lp2098
sbag1
(g88
g3
NtRp2099
(dp2100
g13
(dp2101
sg65
Nsg15
Nsg92
Nsg93
Nsg94
S'https://www.youtube.com/playlist?list=PLbAVnhNl-sE64gmOAz5SaBhOB1CXQiX_b'
p2102
sg96
S'alternate'
p2103
sg70
S'text/html'
p2104
sg19
(lp2105
sbag1
(g88
g3
NtRp2106
(dp2107
g13
(dp2108
sg65
Nsg15
Nsg92
Nsg93
Nsg94
S'https://gdata.youtube.com/feeds/api/users/electronicanstuff/playlists/PLbAVnhNl-sE64gmOAz5SaBhOB1CXQiX_b'
p2109
sg96
S'self'
p2110
sg70
S'application/atom+xml'
p2111
sg19
(lp2112
sbag1
(g88
g3
NtRp2113
(dp2114
g13
(dp2115
sg65
Nsg15
Nsg92
Nsg93
Nsg94
S'https://gdata.youtube.com/feeds/api/users/electronicanstuff/playlists/PLbAVnhNl-sE64gmOAz5SaBhOB1CXQiX_b'
p2116
sg96
S'edit'
p2117
sg70
S'application/atom+xml'
p2118
sg19
(lp2119
sbasg249
g1
(g250
g3
NtRp2120
(dp2121
g15
S'2012-12-03T05:23:03.000Z'
p2122
sg13
(dp2123
sg19
(lp2124
sbsg256
(lp2125
sg65
g1
(g66
g3
NtRp2126
(dp2127
g15
S'Physics I'
p2128
sg70
S'text'
p2129
sg13
(dp2130
sg19
(lp2131
sbsg19
(lp2132
g1
(g265
g3
NtRp2133
(dp2134
g268
(dp2135
sg270
S'group'
p2136
sg272
S'http://search.yahoo.com/mrss/'
p2137
sg274
(lp2138
g1
(g265
g3
NtRp2139
(dp2140
g268
(dp2141
g279
S'https://i.ytimg.com/vi/KOKnWaLiL8w/default.jpg'
p2142
sg281
S'120'
p2143
sg283
S'90'
p2144
sg285
S'default'
p2145
ssg270
S'thumbnail'
p2146
sg272
S'http://search.yahoo.com/mrss/'
p2147
sg274
(lp2148
sg15
Nsbag1
(g265
g3
NtRp2149
(dp2150
g268
(dp2151
g279
S'https://i.ytimg.com/vi/KOKnWaLiL8w/mqdefault.jpg'
p2152
sg281
S'320'
p2153
sg283
S'180'
p2154
sg285
S'mqdefault'
p2155
ssg270
S'thumbnail'
p2156
sg272
S'http://search.yahoo.com/mrss/'
p2157
sg274
(lp2158
sg15
Nsbag1
(g265
g3
NtRp2159
(dp2160
g268
(dp2161
g279
S'https://i.ytimg.com/vi/KOKnWaLiL8w/hqdefault.jpg'
p2162
sg281
S'480'
p2163
sg283
S'360'
p2164
sg285
S'hqdefault'
p2165
ssg270
S'thumbnail'
p2166
sg272
S'http://search.yahoo.com/mrss/'
p2167
sg274
(lp2168
sg15
Nsbag1
(g265
g3
NtRp2169
(dp2170
g268
(dp2171
g313
S'0'
ssg270
S'duration'
p2172
sg272
S'http://gdata.youtube.com/schemas/2007'
p2173
sg274
(lp2174
sg15
Nsbasg15
Nsbag1
(g265
g3
NtRp2175
(dp2176
g268
(dp2177
sg270
S'playlistId'
p2178
sg272
S'http://gdata.youtube.com/schemas/2007'
p2179
sg274
(lp2180
sg15
S'PLbAVnhNl-sE64gmOAz5SaBhOB1CXQiX_b'
p2181
sbasbag1
(g151
g3
NtRp2182
(dp2183
g6
(lp2184
g1
(g8
g3
NtRp2185
(dp2186
g11
S'http://gdata.youtube.com/schemas/2007#playlistLink'
p2187
sg13
(dp2188
sg15
Nsg16
Nsg17
S'http://schemas.google.com/g/2005#kind'
p2189
sg19
(lp2190
sbasg161
Nsg21
g1
(g22
g3
NtRp2191
(dp2192
g15
S'2012-12-03T05:20:25.000Z'
p2193
sg13
(dp2194
sg19
(lp2195
sbsg167
g1
(g30
g3
NtRp2196
(dp2197
g15
S'http://gdata.youtube.com/feeds/api/users/electronicanstuff/playlists/PLbAVnhNl-sE4kC1grHsGSDgUVv9e8AtkS'
p2198
sg13
(dp2199
sg19
(lp2200
sbsg173
g1
(g174
g3
NtRp2201
(dp2202
g15
Nsg13
(dp2203
sg19
(lp2204
sbsg180
(lp2205
g1
(g182
g3
NtRp2206
(dp2207
g185
Nsg186
Nsg13
(dp2208
sg15
Nsg94
S'https://gdata.youtube.com/feeds/api/playlists/PLbAVnhNl-sE4kC1grHsGSDgUVv9e8AtkS'
p2209
sg96
S'http://gdata.youtube.com/schemas/2007#playlist'
p2210
sg190
S'1'
sg19
(lp2211
sbasg36
(lp2212
g1
(g38
g3
NtRp2213
(dp2214
g13
(dp2215
sg15
Nsg42
g1
(g43
g3
NtRp2216
(dp2217
g15
S'https://gdata.youtube.com/feeds/api/users/electronicaNstuff'
p2218
sg13
(dp2219
sg19
(lp2220
sbsg49
g1
(g50
g3
NtRp2221
(dp2222
g15
S'electronicaNstuff'
p2223
sg13
(dp2224
sg19
(lp2225
sbsg56
Nsg19
(lp2226
sbasg15
Nsg74
Nsg207
Nsg208
Nsg209
g1
(g210
g3
NtRp2227
(dp2228
g213
Nsg19
(lp2229
sg70
S'text'
p2230
sg13
(dp2231
sg15
Nsbsg218
Nsg13
(dp2232
sg86
(lp2233
g1
(g88
g3
NtRp2234
(dp2235
g13
(dp2236
sg65
Nsg15
Nsg92
Nsg93
Nsg94
S'https://gdata.youtube.com/feeds/api/users/electronicanstuff'
p2237
sg96
S'related'
p2238
sg70
S'application/atom+xml'
p2239
sg19
(lp2240
sbag1
(g88
g3
NtRp2241
(dp2242
g13
(dp2243
sg65
Nsg15
Nsg92
Nsg93
Nsg94
S'https://www.youtube.com/playlist?list=PLbAVnhNl-sE4kC1grHsGSDgUVv9e8AtkS'
p2244
sg96
S'alternate'
p2245
sg70
S'text/html'
p2246
sg19
(lp2247
sbag1
(g88
g3
NtRp2248
(dp2249
g13
(dp2250
sg65
Nsg15
Nsg92
Nsg93
Nsg94
S'https://gdata.youtube.com/feeds/api/users/electronicanstuff/playlists/PLbAVnhNl-sE4kC1grHsGSDgUVv9e8AtkS'
p2251
sg96
S'self'
p2252
sg70
S'application/atom+xml'
p2253
sg19
(lp2254
sbag1
(g88
g3
NtRp2255
(dp2256
g13
(dp2257
sg65
Nsg15
Nsg92
Nsg93
Nsg94
S'https://gdata.youtube.com/feeds/api/users/electronicanstuff/playlists/PLbAVnhNl-sE4kC1grHsGSDgUVv9e8AtkS'
p2258
sg96
S'edit'
p2259
sg70
S'application/atom+xml'
p2260
sg19
(lp2261
sbasg249
g1
(g250
g3
NtRp2262
(dp2263
g15
S'2012-12-03T05:20:24.000Z'
p2264
sg13
(dp2265
sg19
(lp2266
sbsg256
(lp2267
sg65
g1
(g66
g3
NtRp2268
(dp2269
g15
S'Study'
p2270
sg70
S'text'
p2271
sg13
(dp2272
sg19
(lp2273
sbsg19
(lp2274
g1
(g265
g3
NtRp2275
(dp2276
g268
(dp2277
sg270
S'group'
p2278
sg272
S'http://search.yahoo.com/mrss/'
p2279
sg274
(lp2280
g1
(g265
g3
NtRp2281
(dp2282
g268
(dp2283
g279
S'https://i.ytimg.com/vi/ZYwqKKc1VCQ/default.jpg'
p2284
sg281
S'120'
p2285
sg283
S'90'
p2286
sg285
S'default'
p2287
ssg270
S'thumbnail'
p2288
sg272
S'http://search.yahoo.com/mrss/'
p2289
sg274
(lp2290
sg15
Nsbag1
(g265
g3
NtRp2291
(dp2292
g268
(dp2293
g279
S'https://i.ytimg.com/vi/ZYwqKKc1VCQ/mqdefault.jpg'
p2294
sg281
S'320'
p2295
sg283
S'180'
p2296
sg285
S'mqdefault'
p2297
ssg270
S'thumbnail'
p2298
sg272
S'http://search.yahoo.com/mrss/'
p2299
sg274
(lp2300
sg15
Nsbag1
(g265
g3
NtRp2301
(dp2302
g268
(dp2303
g279
S'https://i.ytimg.com/vi/ZYwqKKc1VCQ/hqdefault.jpg'
p2304
sg281
S'480'
p2305
sg283
S'360'
p2306
sg285
S'hqdefault'
p2307
ssg270
S'thumbnail'
p2308
sg272
S'http://search.yahoo.com/mrss/'
p2309
sg274
(lp2310
sg15
Nsbag1
(g265
g3
NtRp2311
(dp2312
g268
(dp2313
g313
S'0'
ssg270
S'duration'
p2314
sg272
S'http://gdata.youtube.com/schemas/2007'
p2315
sg274
(lp2316
sg15
Nsbasg15
Nsbag1
(g265
g3
NtRp2317
(dp2318
g268
(dp2319
sg270
S'playlistId'
p2320
sg272
S'http://gdata.youtube.com/schemas/2007'
p2321
sg274
(lp2322
sg15
S'PLbAVnhNl-sE4kC1grHsGSDgUVv9e8AtkS'
p2323
sbasbag1
(g151
g3
NtRp2324
(dp2325
g6
(lp2326
g1
(g8
g3
NtRp2327
(dp2328
g11
S'http://gdata.youtube.com/schemas/2007#playlistLink'
p2329
sg13
(dp2330
sg15
Nsg16
Nsg17
S'http://schemas.google.com/g/2005#kind'
p2331
sg19
(lp2332
sbasg161
Nsg21
g1
(g22
g3
NtRp2333
(dp2334
g15
S'2012-12-02T02:59:15.000Z'
p2335
sg13
(dp2336
sg19
(lp2337
sbsg167
g1
(g30
g3
NtRp2338
(dp2339
g15
S'http://gdata.youtube.com/feeds/api/users/electronicanstuff/playlists/PLbAVnhNl-sE62odfhp93qjxE25ehDUo-7'
p2340
sg13
(dp2341
sg19
(lp2342
sbsg173
g1
(g174
g3
NtRp2343
(dp2344
g15
Nsg13
(dp2345
sg19
(lp2346
sbsg180
(lp2347
g1
(g182
g3
NtRp2348
(dp2349
g185
Nsg186
Nsg13
(dp2350
sg15
Nsg94
S'https://gdata.youtube.com/feeds/api/playlists/PLbAVnhNl-sE62odfhp93qjxE25ehDUo-7'
p2351
sg96
S'http://gdata.youtube.com/schemas/2007#playlist'
p2352
sg190
S'40'
p2353
sg19
(lp2354
sbasg36
(lp2355
g1
(g38
g3
NtRp2356
(dp2357
g13
(dp2358
sg15
Nsg42
g1
(g43
g3
NtRp2359
(dp2360
g15
S'https://gdata.youtube.com/feeds/api/users/electronicaNstuff'
p2361
sg13
(dp2362
sg19
(lp2363
sbsg49
g1
(g50
g3
NtRp2364
(dp2365
g15
S'electronicaNstuff'
p2366
sg13
(dp2367
sg19
(lp2368
sbsg56
Nsg19
(lp2369
sbasg15
Nsg74
Nsg207
Nsg208
Nsg209
g1
(g210
g3
NtRp2370
(dp2371
g213
Nsg19
(lp2372
sg70
S'text'
p2373
sg13
(dp2374
sg15
Nsbsg218
Nsg13
(dp2375
sg86
(lp2376
g1
(g88
g3
NtRp2377
(dp2378
g13
(dp2379
sg65
Nsg15
Nsg92
Nsg93
Nsg94
S'https://gdata.youtube.com/feeds/api/users/electronicanstuff'
p2380
sg96
S'related'
p2381
sg70
S'application/atom+xml'
p2382
sg19
(lp2383
sbag1
(g88
g3
NtRp2384
(dp2385
g13
(dp2386
sg65
Nsg15
Nsg92
Nsg93
Nsg94
S'https://www.youtube.com/playlist?list=PLbAVnhNl-sE62odfhp93qjxE25ehDUo-7'
p2387
sg96
S'alternate'
p2388
sg70
S'text/html'
p2389
sg19
(lp2390
sbag1
(g88
g3
NtRp2391
(dp2392
g13
(dp2393
sg65
Nsg15
Nsg92
Nsg93
Nsg94
S'https://gdata.youtube.com/feeds/api/users/electronicanstuff/playlists/PLbAVnhNl-sE62odfhp93qjxE25ehDUo-7'
p2394
sg96
S'self'
p2395
sg70
S'application/atom+xml'
p2396
sg19
(lp2397
sbag1
(g88
g3
NtRp2398
(dp2399
g13
(dp2400
sg65
Nsg15
Nsg92
Nsg93
Nsg94
S'https://gdata.youtube.com/feeds/api/users/electronicanstuff/playlists/PLbAVnhNl-sE62odfhp93qjxE25ehDUo-7'
p2401
sg96
S'edit'
p2402
sg70
S'application/atom+xml'
p2403
sg19
(lp2404
sbasg249
g1
(g250
g3
NtRp2405
(dp2406
g15
S'2012-12-02T02:59:14.000Z'
p2407
sg13
(dp2408
sg19
(lp2409
sbsg256
(lp2410
sg65
g1
(g66
g3
NtRp2411
(dp2412
g15
S'Biology'
p2413
sg70
S'text'
p2414
sg13
(dp2415
sg19
(lp2416
sbsg19
(lp2417
g1
(g265
g3
NtRp2418
(dp2419
g268
(dp2420
sg270
S'group'
p2421
sg272
S'http://search.yahoo.com/mrss/'
p2422
sg274
(lp2423
g1
(g265
g3
NtRp2424
(dp2425
g268
(dp2426
g279
S'https://i.ytimg.com/vi/QnQe0xW_JY4/default.jpg'
p2427
sg281
S'120'
p2428
sg283
S'90'
p2429
sg285
S'default'
p2430
ssg270
S'thumbnail'
p2431
sg272
S'http://search.yahoo.com/mrss/'
p2432
sg274
(lp2433
sg15
Nsbag1
(g265
g3
NtRp2434
(dp2435
g268
(dp2436
g279
S'https://i.ytimg.com/vi/QnQe0xW_JY4/mqdefault.jpg'
p2437
sg281
S'320'
p2438
sg283
S'180'
p2439
sg285
S'mqdefault'
p2440
ssg270
S'thumbnail'
p2441
sg272
S'http://search.yahoo.com/mrss/'
p2442
sg274
(lp2443
sg15
Nsbag1
(g265
g3
NtRp2444
(dp2445
g268
(dp2446
g279
S'https://i.ytimg.com/vi/QnQe0xW_JY4/hqdefault.jpg'
p2447
sg281
S'480'
p2448
sg283
S'360'
p2449
sg285
S'hqdefault'
p2450
ssg270
S'thumbnail'
p2451
sg272
S'http://search.yahoo.com/mrss/'
p2452
sg274
(lp2453
sg15
Nsbag1
(g265
g3
NtRp2454
(dp2455
g268
(dp2456
g313
S'0'
ssg270
S'duration'
p2457
sg272
S'http://gdata.youtube.com/schemas/2007'
p2458
sg274
(lp2459
sg15
Nsbasg15
Nsbag1
(g265
g3
NtRp2460
(dp2461
g268
(dp2462
sg270
S'playlistId'
p2463
sg272
S'http://gdata.youtube.com/schemas/2007'
p2464
sg274
(lp2465
sg15
S'PLbAVnhNl-sE62odfhp93qjxE25ehDUo-7'
p2466
sbasbag1
(g151
g3
NtRp2467
(dp2468
g6
(lp2469
g1
(g8
g3
NtRp2470
(dp2471
g11
S'http://gdata.youtube.com/schemas/2007#playlistLink'
p2472
sg13
(dp2473
sg15
Nsg16
Nsg17
S'http://schemas.google.com/g/2005#kind'
p2474
sg19
(lp2475
sbasg161
Nsg21
g1
(g22
g3
NtRp2476
(dp2477
g15
S'2012-11-30T06:26:27.000Z'
p2478
sg13
(dp2479
sg19
(lp2480
sbsg167
g1
(g30
g3
NtRp2481
(dp2482
g15
S'http://gdata.youtube.com/feeds/api/users/electronicanstuff/playlists/PLbAVnhNl-sE7ctaxgRBDpoWqRQ9iycAVg'
p2483
sg13
(dp2484
sg19
(lp2485
sbsg173
g1
(g174
g3
NtRp2486
(dp2487
g15
Nsg13
(dp2488
sg19
(lp2489
sbsg180
(lp2490
g1
(g182
g3
NtRp2491
(dp2492
g185
Nsg186
Nsg13
(dp2493
sg15
Nsg94
S'https://gdata.youtube.com/feeds/api/playlists/PLbAVnhNl-sE7ctaxgRBDpoWqRQ9iycAVg'
p2494
sg96
S'http://gdata.youtube.com/schemas/2007#playlist'
p2495
sg190
S'1'
sg19
(lp2496
sbasg36
(lp2497
g1
(g38
g3
NtRp2498
(dp2499
g13
(dp2500
sg15
Nsg42
g1
(g43
g3
NtRp2501
(dp2502
g15
S'https://gdata.youtube.com/feeds/api/users/electronicaNstuff'
p2503
sg13
(dp2504
sg19
(lp2505
sbsg49
g1
(g50
g3
NtRp2506
(dp2507
g15
S'electronicaNstuff'
p2508
sg13
(dp2509
sg19
(lp2510
sbsg56
Nsg19
(lp2511
sbasg15
Nsg74
Nsg207
Nsg208
Nsg209
g1
(g210
g3
NtRp2512
(dp2513
g213
Nsg19
(lp2514
sg70
S'text'
p2515
sg13
(dp2516
sg15
Nsbsg218
Nsg13
(dp2517
sg86
(lp2518
g1
(g88
g3
NtRp2519
(dp2520
g13
(dp2521
sg65
Nsg15
Nsg92
Nsg93
Nsg94
S'https://gdata.youtube.com/feeds/api/users/electronicanstuff'
p2522
sg96
S'related'
p2523
sg70
S'application/atom+xml'
p2524
sg19
(lp2525
sbag1
(g88
g3
NtRp2526
(dp2527
g13
(dp2528
sg65
Nsg15
Nsg92
Nsg93
Nsg94
S'https://www.youtube.com/playlist?list=PLbAVnhNl-sE7ctaxgRBDpoWqRQ9iycAVg'
p2529
sg96
S'alternate'
p2530
sg70
S'text/html'
p2531
sg19
(lp2532
sbag1
(g88
g3
NtRp2533
(dp2534
g13
(dp2535
sg65
Nsg15
Nsg92
Nsg93
Nsg94
S'https://gdata.youtube.com/feeds/api/users/electronicanstuff/playlists/PLbAVnhNl-sE7ctaxgRBDpoWqRQ9iycAVg'
p2536
sg96
S'self'
p2537
sg70
S'application/atom+xml'
p2538
sg19
(lp2539
sbag1
(g88
g3
NtRp2540
(dp2541
g13
(dp2542
sg65
Nsg15
Nsg92
Nsg93
Nsg94
S'https://gdata.youtube.com/feeds/api/users/electronicanstuff/playlists/PLbAVnhNl-sE7ctaxgRBDpoWqRQ9iycAVg'
p2543
sg96
S'edit'
p2544
sg70
S'application/atom+xml'
p2545
sg19
(lp2546
sbasg249
g1
(g250
g3
NtRp2547
(dp2548
g15
S'2012-11-30T06:26:25.000Z'
p2549
sg13
(dp2550
sg19
(lp2551
sbsg256
(lp2552
sg65
g1
(g66
g3
NtRp2553
(dp2554
g15
S'Diet'
p2555
sg70
S'text'
p2556
sg13
(dp2557
sg19
(lp2558
sbsg19
(lp2559
g1
(g265
g3
NtRp2560
(dp2561
g268
(dp2562
sg270
S'group'
p2563
sg272
S'http://search.yahoo.com/mrss/'
p2564
sg274
(lp2565
g1
(g265
g3
NtRp2566
(dp2567
g268
(dp2568
g279
S'https://i.ytimg.com/vi/LdOr3yIVO18/default.jpg'
p2569
sg281
S'120'
p2570
sg283
S'90'
p2571
sg285
S'default'
p2572
ssg270
S'thumbnail'
p2573
sg272
S'http://search.yahoo.com/mrss/'
p2574
sg274
(lp2575
sg15
Nsbag1
(g265
g3
NtRp2576
(dp2577
g268
(dp2578
g279
S'https://i.ytimg.com/vi/LdOr3yIVO18/mqdefault.jpg'
p2579
sg281
S'320'
p2580
sg283
S'180'
p2581
sg285
S'mqdefault'
p2582
ssg270
S'thumbnail'
p2583
sg272
S'http://search.yahoo.com/mrss/'
p2584
sg274
(lp2585
sg15
Nsbag1
(g265
g3
NtRp2586
(dp2587
g268
(dp2588
g279
S'https://i.ytimg.com/vi/LdOr3yIVO18/hqdefault.jpg'
p2589
sg281
S'480'
p2590
sg283
S'360'
p2591
sg285
S'hqdefault'
p2592
ssg270
S'thumbnail'
p2593
sg272
S'http://search.yahoo.com/mrss/'
p2594
sg274
(lp2595
sg15
Nsbag1
(g265
g3
NtRp2596
(dp2597
g268
(dp2598
g313
S'0'
ssg270
S'duration'
p2599
sg272
S'http://gdata.youtube.com/schemas/2007'
p2600
sg274
(lp2601
sg15
Nsbasg15
Nsbag1
(g265
g3
NtRp2602
(dp2603
g268
(dp2604
sg270
S'playlistId'
p2605
sg272
S'http://gdata.youtube.com/schemas/2007'
p2606
sg274
(lp2607
sg15
S'PLbAVnhNl-sE7ctaxgRBDpoWqRQ9iycAVg'
p2608
sbasbag1
(g151
g3
NtRp2609
(dp2610
g6
(lp2611
g1
(g8
g3
NtRp2612
(dp2613
g11
S'http://gdata.youtube.com/schemas/2007#playlistLink'
p2614
sg13
(dp2615
sg15
Nsg16
Nsg17
S'http://schemas.google.com/g/2005#kind'
p2616
sg19
(lp2617
sbasg161
Nsg21
g1
(g22
g3
NtRp2618
(dp2619
g15
S'2012-11-29T01:00:10.000Z'
p2620
sg13
(dp2621
sg19
(lp2622
sbsg167
g1
(g30
g3
NtRp2623
(dp2624
g15
S'http://gdata.youtube.com/feeds/api/users/electronicanstuff/playlists/PLbAVnhNl-sE7gb69VmWlaI3pa6BcWS0SI'
p2625
sg13
(dp2626
sg19
(lp2627
sbsg173
g1
(g174
g3
NtRp2628
(dp2629
g15
Nsg13
(dp2630
sg19
(lp2631
sbsg180
(lp2632
g1
(g182
g3
NtRp2633
(dp2634
g185
Nsg186
Nsg13
(dp2635
sg15
Nsg94
S'https://gdata.youtube.com/feeds/api/playlists/PLbAVnhNl-sE7gb69VmWlaI3pa6BcWS0SI'
p2636
sg96
S'http://gdata.youtube.com/schemas/2007#playlist'
p2637
sg190
S'1'
sg19
(lp2638
sbasg36
(lp2639
g1
(g38
g3
NtRp2640
(dp2641
g13
(dp2642
sg15
Nsg42
g1
(g43
g3
NtRp2643
(dp2644
g15
S'https://gdata.youtube.com/feeds/api/users/electronicaNstuff'
p2645
sg13
(dp2646
sg19
(lp2647
sbsg49
g1
(g50
g3
NtRp2648
(dp2649
g15
S'electronicaNstuff'
p2650
sg13
(dp2651
sg19
(lp2652
sbsg56
Nsg19
(lp2653
sbasg15
Nsg74
Nsg207
Nsg208
Nsg209
g1
(g210
g3
NtRp2654
(dp2655
g213
Nsg19
(lp2656
sg70
S'text'
p2657
sg13
(dp2658
sg15
Nsbsg218
Nsg13
(dp2659
sg86
(lp2660
g1
(g88
g3
NtRp2661
(dp2662
g13
(dp2663
sg65
Nsg15
Nsg92
Nsg93
Nsg94
S'https://gdata.youtube.com/feeds/api/users/electronicanstuff'
p2664
sg96
S'related'
p2665
sg70
S'application/atom+xml'
p2666
sg19
(lp2667
sbag1
(g88
g3
NtRp2668
(dp2669
g13
(dp2670
sg65
Nsg15
Nsg92
Nsg93
Nsg94
S'https://www.youtube.com/playlist?list=PLbAVnhNl-sE7gb69VmWlaI3pa6BcWS0SI'
p2671
sg96
S'alternate'
p2672
sg70
S'text/html'
p2673
sg19
(lp2674
sbag1
(g88
g3
NtRp2675
(dp2676
g13
(dp2677
sg65
Nsg15
Nsg92
Nsg93
Nsg94
S'https://gdata.youtube.com/feeds/api/users/electronicanstuff/playlists/PLbAVnhNl-sE7gb69VmWlaI3pa6BcWS0SI'
p2678
sg96
S'self'
p2679
sg70
S'application/atom+xml'
p2680
sg19
(lp2681
sbag1
(g88
g3
NtRp2682
(dp2683
g13
(dp2684
sg65
Nsg15
Nsg92
Nsg93
Nsg94
S'https://gdata.youtube.com/feeds/api/users/electronicanstuff/playlists/PLbAVnhNl-sE7gb69VmWlaI3pa6BcWS0SI'
p2685
sg96
S'edit'
p2686
sg70
S'application/atom+xml'
p2687
sg19
(lp2688
sbasg249
g1
(g250
g3
NtRp2689
(dp2690
g15
S'2012-11-29T01:00:09.000Z'
p2691
sg13
(dp2692
sg19
(lp2693
sbsg256
(lp2694
sg65
g1
(g66
g3
NtRp2695
(dp2696
g15
S'Parkour'
p2697
sg70
S'text'
p2698
sg13
(dp2699
sg19
(lp2700
sbsg19
(lp2701
g1
(g265
g3
NtRp2702
(dp2703
g268
(dp2704
sg270
S'group'
p2705
sg272
S'http://search.yahoo.com/mrss/'
p2706
sg274
(lp2707
g1
(g265
g3
NtRp2708
(dp2709
g268
(dp2710
g279
S'https://i.ytimg.com/vi/aAhPaiajwDY/default.jpg'
p2711
sg281
S'120'
p2712
sg283
S'90'
p2713
sg285
S'default'
p2714
ssg270
S'thumbnail'
p2715
sg272
S'http://search.yahoo.com/mrss/'
p2716
sg274
(lp2717
sg15
Nsbag1
(g265
g3
NtRp2718
(dp2719
g268
(dp2720
g279
S'https://i.ytimg.com/vi/aAhPaiajwDY/mqdefault.jpg'
p2721
sg281
S'320'
p2722
sg283
S'180'
p2723
sg285
S'mqdefault'
p2724
ssg270
S'thumbnail'
p2725
sg272
S'http://search.yahoo.com/mrss/'
p2726
sg274
(lp2727
sg15
Nsbag1
(g265
g3
NtRp2728
(dp2729
g268
(dp2730
g279
S'https://i.ytimg.com/vi/aAhPaiajwDY/hqdefault.jpg'
p2731
sg281
S'480'
p2732
sg283
S'360'
p2733
sg285
S'hqdefault'
p2734
ssg270
S'thumbnail'
p2735
sg272
S'http://search.yahoo.com/mrss/'
p2736
sg274
(lp2737
sg15
Nsbag1
(g265
g3
NtRp2738
(dp2739
g268
(dp2740
g313
S'0'
ssg270
S'duration'
p2741
sg272
S'http://gdata.youtube.com/schemas/2007'
p2742
sg274
(lp2743
sg15
Nsbasg15
Nsbag1
(g265
g3
NtRp2744
(dp2745
g268
(dp2746
sg270
S'playlistId'
p2747
sg272
S'http://gdata.youtube.com/schemas/2007'
p2748
sg274
(lp2749
sg15
S'PLbAVnhNl-sE7gb69VmWlaI3pa6BcWS0SI'
p2750
sbasbag1
(g151
g3
NtRp2751
(dp2752
g6
(lp2753
g1
(g8
g3
NtRp2754
(dp2755
g11
S'http://gdata.youtube.com/schemas/2007#playlistLink'
p2756
sg13
(dp2757
sg15
Nsg16
Nsg17
S'http://schemas.google.com/g/2005#kind'
p2758
sg19
(lp2759
sbasg161
Nsg21
g1
(g22
g3
NtRp2760
(dp2761
g15
S'2012-11-24T03:05:55.000Z'
p2762
sg13
(dp2763
sg19
(lp2764
sbsg167
g1
(g30
g3
NtRp2765
(dp2766
g15
S'http://gdata.youtube.com/feeds/api/users/electronicanstuff/playlists/PLbAVnhNl-sE4_jPLPYh25ZMJ3a5tfnue0'
p2767
sg13
(dp2768
sg19
(lp2769
sbsg173
g1
(g174
g3
NtRp2770
(dp2771
g15
Nsg13
(dp2772
sg19
(lp2773
sbsg180
(lp2774
g1
(g182
g3
NtRp2775
(dp2776
g185
Nsg186
Nsg13
(dp2777
sg15
Nsg94
S'https://gdata.youtube.com/feeds/api/playlists/PLbAVnhNl-sE4_jPLPYh25ZMJ3a5tfnue0'
p2778
sg96
S'http://gdata.youtube.com/schemas/2007#playlist'
p2779
sg190
S'5'
sg19
(lp2780
sbasg36
(lp2781
g1
(g38
g3
NtRp2782
(dp2783
g13
(dp2784
sg15
Nsg42
g1
(g43
g3
NtRp2785
(dp2786
g15
S'https://gdata.youtube.com/feeds/api/users/electronicaNstuff'
p2787
sg13
(dp2788
sg19
(lp2789
sbsg49
g1
(g50
g3
NtRp2790
(dp2791
g15
S'electronicaNstuff'
p2792
sg13
(dp2793
sg19
(lp2794
sbsg56
Nsg19
(lp2795
sbasg15
Nsg74
Nsg207
Nsg208
Nsg209
g1
(g210
g3
NtRp2796
(dp2797
g213
Nsg19
(lp2798
sg70
S'text'
p2799
sg13
(dp2800
sg15
Nsbsg218
Nsg13
(dp2801
sg86
(lp2802
g1
(g88
g3
NtRp2803
(dp2804
g13
(dp2805
sg65
Nsg15
Nsg92
Nsg93
Nsg94
S'https://gdata.youtube.com/feeds/api/users/electronicanstuff'
p2806
sg96
S'related'
p2807
sg70
S'application/atom+xml'
p2808
sg19
(lp2809
sbag1
(g88
g3
NtRp2810
(dp2811
g13
(dp2812
sg65
Nsg15
Nsg92
Nsg93
Nsg94
S'https://www.youtube.com/playlist?list=PLbAVnhNl-sE4_jPLPYh25ZMJ3a5tfnue0'
p2813
sg96
S'alternate'
p2814
sg70
S'text/html'
p2815
sg19
(lp2816
sbag1
(g88
g3
NtRp2817
(dp2818
g13
(dp2819
sg65
Nsg15
Nsg92
Nsg93
Nsg94
S'https://gdata.youtube.com/feeds/api/users/electronicanstuff/playlists/PLbAVnhNl-sE4_jPLPYh25ZMJ3a5tfnue0'
p2820
sg96
S'self'
p2821
sg70
S'application/atom+xml'
p2822
sg19
(lp2823
sbag1
(g88
g3
NtRp2824
(dp2825
g13
(dp2826
sg65
Nsg15
Nsg92
Nsg93
Nsg94
S'https://gdata.youtube.com/feeds/api/users/electronicanstuff/playlists/PLbAVnhNl-sE4_jPLPYh25ZMJ3a5tfnue0'
p2827
sg96
S'edit'
p2828
sg70
S'application/atom+xml'
p2829
sg19
(lp2830
sbasg249
g1
(g250
g3
NtRp2831
(dp2832
g15
S'2012-11-24T03:05:54.000Z'
p2833
sg13
(dp2834
sg19
(lp2835
sbsg256
(lp2836
sg65
g1
(g66
g3
NtRp2837
(dp2838
g15
S'Hitman Absolution Walkthrough'
p2839
sg70
S'text'
p2840
sg13
(dp2841
sg19
(lp2842
sbsg19
(lp2843
g1
(g265
g3
NtRp2844
(dp2845
g268
(dp2846
sg270
S'group'
p2847
sg272
S'http://search.yahoo.com/mrss/'
p2848
sg274
(lp2849
g1
(g265
g3
NtRp2850
(dp2851
g268
(dp2852
g279
S'https://i.ytimg.com/vi/wXjY32q9cN4/default.jpg'
p2853
sg281
S'120'
p2854
sg283
S'90'
p2855
sg285
S'default'
p2856
ssg270
S'thumbnail'
p2857
sg272
S'http://search.yahoo.com/mrss/'
p2858
sg274
(lp2859
sg15
Nsbag1
(g265
g3
NtRp2860
(dp2861
g268
(dp2862
g279
S'https://i.ytimg.com/vi/wXjY32q9cN4/mqdefault.jpg'
p2863
sg281
S'320'
p2864
sg283
S'180'
p2865
sg285
S'mqdefault'
p2866
ssg270
S'thumbnail'
p2867
sg272
S'http://search.yahoo.com/mrss/'
p2868
sg274
(lp2869
sg15
Nsbag1
(g265
g3
NtRp2870
(dp2871
g268
(dp2872
g279
S'https://i.ytimg.com/vi/wXjY32q9cN4/hqdefault.jpg'
p2873
sg281
S'480'
p2874
sg283
S'360'
p2875
sg285
S'hqdefault'
p2876
ssg270
S'thumbnail'
p2877
sg272
S'http://search.yahoo.com/mrss/'
p2878
sg274
(lp2879
sg15
Nsbag1
(g265
g3
NtRp2880
(dp2881
g268
(dp2882
g313
S'0'
ssg270
S'duration'
p2883
sg272
S'http://gdata.youtube.com/schemas/2007'
p2884
sg274
(lp2885
sg15
Nsbasg15
Nsbag1
(g265
g3
NtRp2886
(dp2887
g268
(dp2888
sg270
S'playlistId'
p2889
sg272
S'http://gdata.youtube.com/schemas/2007'
p2890
sg274
(lp2891
sg15
S'PLbAVnhNl-sE4_jPLPYh25ZMJ3a5tfnue0'
p2892
sbasbag1
(g151
g3
NtRp2893
(dp2894
g6
(lp2895
g1
(g8
g3
NtRp2896
(dp2897
g11
S'http://gdata.youtube.com/schemas/2007#playlistLink'
p2898
sg13
(dp2899
sg15
Nsg16
Nsg17
S'http://schemas.google.com/g/2005#kind'
p2900
sg19
(lp2901
sbasg161
Nsg21
g1
(g22
g3
NtRp2902
(dp2903
g15
S'2012-11-19T15:33:50.000Z'
p2904
sg13
(dp2905
sg19
(lp2906
sbsg167
g1
(g30
g3
NtRp2907
(dp2908
g15
S'http://gdata.youtube.com/feeds/api/users/electronicanstuff/playlists/PLbAVnhNl-sE5XrkcMBdzCY-3v3kjJAhCK'
p2909
sg13
(dp2910
sg19
(lp2911
sbsg173
g1
(g174
g3
NtRp2912
(dp2913
g15
Nsg13
(dp2914
sg19
(lp2915
sbsg180
(lp2916
g1
(g182
g3
NtRp2917
(dp2918
g185
Nsg186
Nsg13
(dp2919
sg15
Nsg94
S'https://gdata.youtube.com/feeds/api/playlists/PLbAVnhNl-sE5XrkcMBdzCY-3v3kjJAhCK'
p2920
sg96
S'http://gdata.youtube.com/schemas/2007#playlist'
p2921
sg190
S'1'
sg19
(lp2922
sbasg36
(lp2923
g1
(g38
g3
NtRp2924
(dp2925
g13
(dp2926
sg15
Nsg42
g1
(g43
g3
NtRp2927
(dp2928
g15
S'https://gdata.youtube.com/feeds/api/users/electronicaNstuff'
p2929
sg13
(dp2930
sg19
(lp2931
sbsg49
g1
(g50
g3
NtRp2932
(dp2933
g15
S'electronicaNstuff'
p2934
sg13
(dp2935
sg19
(lp2936
sbsg56
Nsg19
(lp2937
sbasg15
Nsg74
Nsg207
Nsg208
Nsg209
g1
(g210
g3
NtRp2938
(dp2939
g213
Nsg19
(lp2940
sg70
S'text'
p2941
sg13
(dp2942
sg15
Nsbsg218
Nsg13
(dp2943
sg86
(lp2944
g1
(g88
g3
NtRp2945
(dp2946
g13
(dp2947
sg65
Nsg15
Nsg92
Nsg93
Nsg94
S'https://gdata.youtube.com/feeds/api/users/electronicanstuff'
p2948
sg96
S'related'
p2949
sg70
S'application/atom+xml'
p2950
sg19
(lp2951
sbag1
(g88
g3
NtRp2952
(dp2953
g13
(dp2954
sg65
Nsg15
Nsg92
Nsg93
Nsg94
S'https://www.youtube.com/playlist?list=PLbAVnhNl-sE5XrkcMBdzCY-3v3kjJAhCK'
p2955
sg96
S'alternate'
p2956
sg70
S'text/html'
p2957
sg19
(lp2958
sbag1
(g88
g3
NtRp2959
(dp2960
g13
(dp2961
sg65
Nsg15
Nsg92
Nsg93
Nsg94
S'https://gdata.youtube.com/feeds/api/users/electronicanstuff/playlists/PLbAVnhNl-sE5XrkcMBdzCY-3v3kjJAhCK'
p2962
sg96
S'self'
p2963
sg70
S'application/atom+xml'
p2964
sg19
(lp2965
sbag1
(g88
g3
NtRp2966
(dp2967
g13
(dp2968
sg65
Nsg15
Nsg92
Nsg93
Nsg94
S'https://gdata.youtube.com/feeds/api/users/electronicanstuff/playlists/PLbAVnhNl-sE5XrkcMBdzCY-3v3kjJAhCK'
p2969
sg96
S'edit'
p2970
sg70
S'application/atom+xml'
p2971
sg19
(lp2972
sbasg249
g1
(g250
g3
NtRp2973
(dp2974
g15
S'2012-11-19T15:33:49.000Z'
p2975
sg13
(dp2976
sg19
(lp2977
sbsg256
(lp2978
sg65
g1
(g66
g3
NtRp2979
(dp2980
g15
S'Recipes'
p2981
sg70
S'text'
p2982
sg13
(dp2983
sg19
(lp2984
sbsg19
(lp2985
g1
(g265
g3
NtRp2986
(dp2987
g268
(dp2988
sg270
S'group'
p2989
sg272
S'http://search.yahoo.com/mrss/'
p2990
sg274
(lp2991
g1
(g265
g3
NtRp2992
(dp2993
g268
(dp2994
g279
S'https://i.ytimg.com/vi/xDt23s7WUVM/default.jpg'
p2995
sg281
S'120'
p2996
sg283
S'90'
p2997
sg285
S'default'
p2998
ssg270
S'thumbnail'
p2999
sg272
S'http://search.yahoo.com/mrss/'
p3000
sg274
(lp3001
sg15
Nsbag1
(g265
g3
NtRp3002
(dp3003
g268
(dp3004
g279
S'https://i.ytimg.com/vi/xDt23s7WUVM/mqdefault.jpg'
p3005
sg281
S'320'
p3006
sg283
S'180'
p3007
sg285
S'mqdefault'
p3008
ssg270
S'thumbnail'
p3009
sg272
S'http://search.yahoo.com/mrss/'
p3010
sg274
(lp3011
sg15
Nsbag1
(g265
g3
NtRp3012
(dp3013
g268
(dp3014
g279
S'https://i.ytimg.com/vi/xDt23s7WUVM/hqdefault.jpg'
p3015
sg281
S'480'
p3016
sg283
S'360'
p3017
sg285
S'hqdefault'
p3018
ssg270
S'thumbnail'
p3019
sg272
S'http://search.yahoo.com/mrss/'
p3020
sg274
(lp3021
sg15
Nsbag1
(g265
g3
NtRp3022
(dp3023
g268
(dp3024
g313
S'0'
ssg270
S'duration'
p3025
sg272
S'http://gdata.youtube.com/schemas/2007'
p3026
sg274
(lp3027
sg15
Nsbasg15
Nsbag1
(g265
g3
NtRp3028
(dp3029
g268
(dp3030
sg270
S'playlistId'
p3031
sg272
S'http://gdata.youtube.com/schemas/2007'
p3032
sg274
(lp3033
sg15
S'PLbAVnhNl-sE5XrkcMBdzCY-3v3kjJAhCK'
p3034
sbasbag1
(g151
g3
NtRp3035
(dp3036
g6
(lp3037
g1
(g8
g3
NtRp3038
(dp3039
g11
S'http://gdata.youtube.com/schemas/2007#playlistLink'
p3040
sg13
(dp3041
sg15
Nsg16
Nsg17
S'http://schemas.google.com/g/2005#kind'
p3042
sg19
(lp3043
sbasg161
Nsg21
g1
(g22
g3
NtRp3044
(dp3045
g15
S'2013-03-22T06:51:32.000Z'
p3046
sg13
(dp3047
sg19
(lp3048
sbsg167
g1
(g30
g3
NtRp3049
(dp3050
g15
S'http://gdata.youtube.com/feeds/api/users/electronicanstuff/playlists/PLbAVnhNl-sE6e7spNnjmHcMWsO4OabuAA'
p3051
sg13
(dp3052
sg19
(lp3053
sbsg173
g1
(g174
g3
NtRp3054
(dp3055
g15
Nsg13
(dp3056
sg19
(lp3057
sbsg180
(lp3058
g1
(g182
g3
NtRp3059
(dp3060
g185
Nsg186
Nsg13
(dp3061
sg15
Nsg94
S'https://gdata.youtube.com/feeds/api/playlists/PLbAVnhNl-sE6e7spNnjmHcMWsO4OabuAA'
p3062
sg96
S'http://gdata.youtube.com/schemas/2007#playlist'
p3063
sg190
S'9'
sg19
(lp3064
sbasg36
(lp3065
g1
(g38
g3
NtRp3066
(dp3067
g13
(dp3068
sg15
Nsg42
g1
(g43
g3
NtRp3069
(dp3070
g15
S'https://gdata.youtube.com/feeds/api/users/electronicaNstuff'
p3071
sg13
(dp3072
sg19
(lp3073
sbsg49
g1
(g50
g3
NtRp3074
(dp3075
g15
S'electronicaNstuff'
p3076
sg13
(dp3077
sg19
(lp3078
sbsg56
Nsg19
(lp3079
sbasg15
Nsg74
Nsg207
Nsg208
Nsg209
g1
(g210
g3
NtRp3080
(dp3081
g213
Nsg19
(lp3082
sg70
S'text'
p3083
sg13
(dp3084
sg15
Nsbsg218
Nsg13
(dp3085
sg86
(lp3086
g1
(g88
g3
NtRp3087
(dp3088
g13
(dp3089
sg65
Nsg15
Nsg92
Nsg93
Nsg94
S'https://gdata.youtube.com/feeds/api/users/electronicanstuff'
p3090
sg96
S'related'
p3091
sg70
S'application/atom+xml'
p3092
sg19
(lp3093
sbag1
(g88
g3
NtRp3094
(dp3095
g13
(dp3096
sg65
Nsg15
Nsg92
Nsg93
Nsg94
S'https://www.youtube.com/playlist?list=PLbAVnhNl-sE6e7spNnjmHcMWsO4OabuAA'
p3097
sg96
S'alternate'
p3098
sg70
S'text/html'
p3099
sg19
(lp3100
sbag1
(g88
g3
NtRp3101
(dp3102
g13
(dp3103
sg65
Nsg15
Nsg92
Nsg93
Nsg94
S'https://gdata.youtube.com/feeds/api/users/electronicanstuff/playlists/PLbAVnhNl-sE6e7spNnjmHcMWsO4OabuAA'
p3104
sg96
S'self'
p3105
sg70
S'application/atom+xml'
p3106
sg19
(lp3107
sbag1
(g88
g3
NtRp3108
(dp3109
g13
(dp3110
sg65
Nsg15
Nsg92
Nsg93
Nsg94
S'https://gdata.youtube.com/feeds/api/users/electronicanstuff/playlists/PLbAVnhNl-sE6e7spNnjmHcMWsO4OabuAA'
p3111
sg96
S'edit'
p3112
sg70
S'application/atom+xml'
p3113
sg19
(lp3114
sbasg249
g1
(g250
g3
NtRp3115
(dp3116
g15
S'2012-11-08T13:13:31.000Z'
p3117
sg13
(dp3118
sg19
(lp3119
sbsg256
(lp3120
sg65
g1
(g66
g3
NtRp3121
(dp3122
g15
S'Workout Videos'
p3123
sg70
S'text'
p3124
sg13
(dp3125
sg19
(lp3126
sbsg19
(lp3127
g1
(g265
g3
NtRp3128
(dp3129
g268
(dp3130
sg270
S'group'
p3131
sg272
S'http://search.yahoo.com/mrss/'
p3132
sg274
(lp3133
g1
(g265
g3
NtRp3134
(dp3135
g268
(dp3136
g279
S'https://i.ytimg.com/vi/BsaD-BadB9M/default.jpg'
p3137
sg281
S'120'
p3138
sg283
S'90'
p3139
sg285
S'default'
p3140
ssg270
S'thumbnail'
p3141
sg272
S'http://search.yahoo.com/mrss/'
p3142
sg274
(lp3143
sg15
Nsbag1
(g265
g3
NtRp3144
(dp3145
g268
(dp3146
g279
S'https://i.ytimg.com/vi/BsaD-BadB9M/mqdefault.jpg'
p3147
sg281
S'320'
p3148
sg283
S'180'
p3149
sg285
S'mqdefault'
p3150
ssg270
S'thumbnail'
p3151
sg272
S'http://search.yahoo.com/mrss/'
p3152
sg274
(lp3153
sg15
Nsbag1
(g265
g3
NtRp3154
(dp3155
g268
(dp3156
g279
S'https://i.ytimg.com/vi/BsaD-BadB9M/hqdefault.jpg'
p3157
sg281
S'480'
p3158
sg283
S'360'
p3159
sg285
S'hqdefault'
p3160
ssg270
S'thumbnail'
p3161
sg272
S'http://search.yahoo.com/mrss/'
p3162
sg274
(lp3163
sg15
Nsbag1
(g265
g3
NtRp3164
(dp3165
g268
(dp3166
g313
S'0'
ssg270
S'duration'
p3167
sg272
S'http://gdata.youtube.com/schemas/2007'
p3168
sg274
(lp3169
sg15
Nsbasg15
Nsbag1
(g265
g3
NtRp3170
(dp3171
g268
(dp3172
sg270
S'playlistId'
p3173
sg272
S'http://gdata.youtube.com/schemas/2007'
p3174
sg274
(lp3175
sg15
S'PLbAVnhNl-sE6e7spNnjmHcMWsO4OabuAA'
p3176
sbasbag1
(g151
g3
NtRp3177
(dp3178
g6
(lp3179
g1
(g8
g3
NtRp3180
(dp3181
g11
S'http://gdata.youtube.com/schemas/2007#playlistLink'
p3182
sg13
(dp3183
sg15
Nsg16
Nsg17
S'http://schemas.google.com/g/2005#kind'
p3184
sg19
(lp3185
sbasg161
Nsg21
g1
(g22
g3
NtRp3186
(dp3187
g15
S'2012-11-05T19:45:18.000Z'
p3188
sg13
(dp3189
sg19
(lp3190
sbsg167
g1
(g30
g3
NtRp3191
(dp3192
g15
S'http://gdata.youtube.com/feeds/api/users/electronicanstuff/playlists/PLbAVnhNl-sE4M82WHCWzD2b-Zgk041Fgx'
p3193
sg13
(dp3194
sg19
(lp3195
sbsg173
g1
(g174
g3
NtRp3196
(dp3197
g15
Nsg13
(dp3198
sg19
(lp3199
sbsg180
(lp3200
g1
(g182
g3
NtRp3201
(dp3202
g185
Nsg186
Nsg13
(dp3203
sg15
Nsg94
S'https://gdata.youtube.com/feeds/api/playlists/PLbAVnhNl-sE4M82WHCWzD2b-Zgk041Fgx'
p3204
sg96
S'http://gdata.youtube.com/schemas/2007#playlist'
p3205
sg190
S'11'
p3206
sg19
(lp3207
sbasg36
(lp3208
g1
(g38
g3
NtRp3209
(dp3210
g13
(dp3211
sg15
Nsg42
g1
(g43
g3
NtRp3212
(dp3213
g15
S'https://gdata.youtube.com/feeds/api/users/electronicaNstuff'
p3214
sg13
(dp3215
sg19
(lp3216
sbsg49
g1
(g50
g3
NtRp3217
(dp3218
g15
S'electronicaNstuff'
p3219
sg13
(dp3220
sg19
(lp3221
sbsg56
Nsg19
(lp3222
sbasg15
Nsg74
Nsg207
Nsg208
Nsg209
g1
(g210
g3
NtRp3223
(dp3224
g213
Nsg19
(lp3225
sg70
S'text'
p3226
sg13
(dp3227
sg15
Nsbsg218
Nsg13
(dp3228
sg86
(lp3229
g1
(g88
g3
NtRp3230
(dp3231
g13
(dp3232
sg65
Nsg15
Nsg92
Nsg93
Nsg94
S'https://gdata.youtube.com/feeds/api/users/electronicanstuff'
p3233
sg96
S'related'
p3234
sg70
S'application/atom+xml'
p3235
sg19
(lp3236
sbag1
(g88
g3
NtRp3237
(dp3238
g13
(dp3239
sg65
Nsg15
Nsg92
Nsg93
Nsg94
S'https://www.youtube.com/playlist?list=PLbAVnhNl-sE4M82WHCWzD2b-Zgk041Fgx'
p3240
sg96
S'alternate'
p3241
sg70
S'text/html'
p3242
sg19
(lp3243
sbag1
(g88
g3
NtRp3244
(dp3245
g13
(dp3246
sg65
Nsg15
Nsg92
Nsg93
Nsg94
S'https://gdata.youtube.com/feeds/api/users/electronicanstuff/playlists/PLbAVnhNl-sE4M82WHCWzD2b-Zgk041Fgx'
p3247
sg96
S'self'
p3248
sg70
S'application/atom+xml'
p3249
sg19
(lp3250
sbag1
(g88
g3
NtRp3251
(dp3252
g13
(dp3253
sg65
Nsg15
Nsg92
Nsg93
Nsg94
S'https://gdata.youtube.com/feeds/api/users/electronicanstuff/playlists/PLbAVnhNl-sE4M82WHCWzD2b-Zgk041Fgx'
p3254
sg96
S'edit'
p3255
sg70
S'application/atom+xml'
p3256
sg19
(lp3257
sbasg249
g1
(g250
g3
NtRp3258
(dp3259
g15
S'2012-11-05T19:45:17.000Z'
p3260
sg13
(dp3261
sg19
(lp3262
sbsg256
(lp3263
sg65
g1
(g66
g3
NtRp3264
(dp3265
g15
S'Education'
p3266
sg70
S'text'
p3267
sg13
(dp3268
sg19
(lp3269
sbsg19
(lp3270
g1
(g265
g3
NtRp3271
(dp3272
g268
(dp3273
sg270
S'group'
p3274
sg272
S'http://search.yahoo.com/mrss/'
p3275
sg274
(lp3276
g1
(g265
g3
NtRp3277
(dp3278
g268
(dp3279
g279
S'https://i.ytimg.com/vi/AqwJXTyfNqU/default.jpg'
p3280
sg281
S'120'
p3281
sg283
S'90'
p3282
sg285
S'default'
p3283
ssg270
S'thumbnail'
p3284
sg272
S'http://search.yahoo.com/mrss/'
p3285
sg274
(lp3286
sg15
Nsbag1
(g265
g3
NtRp3287
(dp3288
g268
(dp3289
g279
S'https://i.ytimg.com/vi/AqwJXTyfNqU/mqdefault.jpg'
p3290
sg281
S'320'
p3291
sg283
S'180'
p3292
sg285
S'mqdefault'
p3293
ssg270
S'thumbnail'
p3294
sg272
S'http://search.yahoo.com/mrss/'
p3295
sg274
(lp3296
sg15
Nsbag1
(g265
g3
NtRp3297
(dp3298
g268
(dp3299
g279
S'https://i.ytimg.com/vi/AqwJXTyfNqU/hqdefault.jpg'
p3300
sg281
S'480'
p3301
sg283
S'360'
p3302
sg285
S'hqdefault'
p3303
ssg270
S'thumbnail'
p3304
sg272
S'http://search.yahoo.com/mrss/'
p3305
sg274
(lp3306
sg15
Nsbag1
(g265
g3
NtRp3307
(dp3308
g268
(dp3309
g313
S'0'
ssg270
S'duration'
p3310
sg272
S'http://gdata.youtube.com/schemas/2007'
p3311
sg274
(lp3312
sg15
Nsbasg15
Nsbag1
(g265
g3
NtRp3313
(dp3314
g268
(dp3315
sg270
S'playlistId'
p3316
sg272
S'http://gdata.youtube.com/schemas/2007'
p3317
sg274
(lp3318
sg15
S'PLbAVnhNl-sE4M82WHCWzD2b-Zgk041Fgx'
p3319
sbasbag1
(g151
g3
NtRp3320
(dp3321
g6
(lp3322
g1
(g8
g3
NtRp3323
(dp3324
g11
S'http://gdata.youtube.com/schemas/2007#playlistLink'
p3325
sg13
(dp3326
sg15
Nsg16
Nsg17
S'http://schemas.google.com/g/2005#kind'
p3327
sg19
(lp3328
sbasg161
Nsg21
g1
(g22
g3
NtRp3329
(dp3330
g15
S'2012-09-23T23:37:11.000Z'
p3331
sg13
(dp3332
sg19
(lp3333
sbsg167
g1
(g30
g3
NtRp3334
(dp3335
g15
S'http://gdata.youtube.com/feeds/api/users/electronicanstuff/playlists/PLbAVnhNl-sE6bjQRVuhw0v6_31y1UxkU9'
p3336
sg13
(dp3337
sg19
(lp3338
sbsg173
g1
(g174
g3
NtRp3339
(dp3340
g15
Nsg13
(dp3341
sg19
(lp3342
sbsg180
(lp3343
g1
(g182
g3
NtRp3344
(dp3345
g185
Nsg186
Nsg13
(dp3346
sg15
Nsg94
S'https://gdata.youtube.com/feeds/api/playlists/PLbAVnhNl-sE6bjQRVuhw0v6_31y1UxkU9'
p3347
sg96
S'http://gdata.youtube.com/schemas/2007#playlist'
p3348
sg190
S'32'
p3349
sg19
(lp3350
sbasg36
(lp3351
g1
(g38
g3
NtRp3352
(dp3353
g13
(dp3354
sg15
Nsg42
g1
(g43
g3
NtRp3355
(dp3356
g15
S'https://gdata.youtube.com/feeds/api/users/electronicaNstuff'
p3357
sg13
(dp3358
sg19
(lp3359
sbsg49
g1
(g50
g3
NtRp3360
(dp3361
g15
S'electronicaNstuff'
p3362
sg13
(dp3363
sg19
(lp3364
sbsg56
Nsg19
(lp3365
sbasg15
Nsg74
Nsg207
Nsg208
Nsg209
g1
(g210
g3
NtRp3366
(dp3367
g213
Nsg19
(lp3368
sg70
S'text'
p3369
sg13
(dp3370
sg15
Nsbsg218
Nsg13
(dp3371
sg86
(lp3372
g1
(g88
g3
NtRp3373
(dp3374
g13
(dp3375
sg65
Nsg15
Nsg92
Nsg93
Nsg94
S'https://gdata.youtube.com/feeds/api/users/electronicanstuff'
p3376
sg96
S'related'
p3377
sg70
S'application/atom+xml'
p3378
sg19
(lp3379
sbag1
(g88
g3
NtRp3380
(dp3381
g13
(dp3382
sg65
Nsg15
Nsg92
Nsg93
Nsg94
S'https://www.youtube.com/playlist?list=PLbAVnhNl-sE6bjQRVuhw0v6_31y1UxkU9'
p3383
sg96
S'alternate'
p3384
sg70
S'text/html'
p3385
sg19
(lp3386
sbag1
(g88
g3
NtRp3387
(dp3388
g13
(dp3389
sg65
Nsg15
Nsg92
Nsg93
Nsg94
S'https://gdata.youtube.com/feeds/api/users/electronicanstuff/playlists/PLbAVnhNl-sE6bjQRVuhw0v6_31y1UxkU9'
p3390
sg96
S'self'
p3391
sg70
S'application/atom+xml'
p3392
sg19
(lp3393
sbag1
(g88
g3
NtRp3394
(dp3395
g13
(dp3396
sg65
Nsg15
Nsg92
Nsg93
Nsg94
S'https://gdata.youtube.com/feeds/api/users/electronicanstuff/playlists/PLbAVnhNl-sE6bjQRVuhw0v6_31y1UxkU9'
p3397
sg96
S'edit'
p3398
sg70
S'application/atom+xml'
p3399
sg19
(lp3400
sbasg249
g1
(g250
g3
NtRp3401
(dp3402
g15
S'2012-09-23T23:36:19.000Z'
p3403
sg13
(dp3404
sg19
(lp3405
sbsg256
(lp3406
sg65
g1
(g66
g3
NtRp3407
(dp3408
g15
S'MIT Challenge'
p3409
sg70
S'text'
p3410
sg13
(dp3411
sg19
(lp3412
sbsg19
(lp3413
g1
(g265
g3
NtRp3414
(dp3415
g268
(dp3416
sg270
S'group'
p3417
sg272
S'http://search.yahoo.com/mrss/'
p3418
sg274
(lp3419
g1
(g265
g3
NtRp3420
(dp3421
g268
(dp3422
g279
S'https://i.ytimg.com/vi/4pP68s3rjL4/default.jpg'
p3423
sg281
S'120'
p3424
sg283
S'90'
p3425
sg285
S'default'
p3426
ssg270
S'thumbnail'
p3427
sg272
S'http://search.yahoo.com/mrss/'
p3428
sg274
(lp3429
sg15
Nsbag1
(g265
g3
NtRp3430
(dp3431
g268
(dp3432
g279
S'https://i.ytimg.com/vi/4pP68s3rjL4/mqdefault.jpg'
p3433
sg281
S'320'
p3434
sg283
S'180'
p3435
sg285
S'mqdefault'
p3436
ssg270
S'thumbnail'
p3437
sg272
S'http://search.yahoo.com/mrss/'
p3438
sg274
(lp3439
sg15
Nsbag1
(g265
g3
NtRp3440
(dp3441
g268
(dp3442
g279
S'https://i.ytimg.com/vi/4pP68s3rjL4/hqdefault.jpg'
p3443
sg281
S'480'
p3444
sg283
S'360'
p3445
sg285
S'hqdefault'
p3446
ssg270
S'thumbnail'
p3447
sg272
S'http://search.yahoo.com/mrss/'
p3448
sg274
(lp3449
sg15
Nsbag1
(g265
g3
NtRp3450
(dp3451
g268
(dp3452
g313
S'0'
ssg270
S'duration'
p3453
sg272
S'http://gdata.youtube.com/schemas/2007'
p3454
sg274
(lp3455
sg15
Nsbasg15
Nsbag1
(g265
g3
NtRp3456
(dp3457
g268
(dp3458
sg270
S'playlistId'
p3459
sg272
S'http://gdata.youtube.com/schemas/2007'
p3460
sg274
(lp3461
sg15
S'PLbAVnhNl-sE6bjQRVuhw0v6_31y1UxkU9'
p3462
sbasbag1
(g151
g3
NtRp3463
(dp3464
g6
(lp3465
g1
(g8
g3
NtRp3466
(dp3467
g11
S'http://gdata.youtube.com/schemas/2007#playlistLink'
p3468
sg13
(dp3469
sg15
Nsg16
Nsg17
S'http://schemas.google.com/g/2005#kind'
p3470
sg19
(lp3471
sbasg161
Nsg21
g1
(g22
g3
NtRp3472
(dp3473
g15
S'2012-09-21T04:01:36.000Z'
p3474
sg13
(dp3475
sg19
(lp3476
sbsg167
g1
(g30
g3
NtRp3477
(dp3478
g15
S'http://gdata.youtube.com/feeds/api/users/electronicanstuff/playlists/PLbAVnhNl-sE4sAMOK1tangDDtxTdH4bxN'
p3479
sg13
(dp3480
sg19
(lp3481
sbsg173
g1
(g174
g3
NtRp3482
(dp3483
g15
Nsg13
(dp3484
sg19
(lp3485
sbsg180
(lp3486
g1
(g182
g3
NtRp3487
(dp3488
g185
Nsg186
Nsg13
(dp3489
sg15
Nsg94
S'https://gdata.youtube.com/feeds/api/playlists/PLbAVnhNl-sE4sAMOK1tangDDtxTdH4bxN'
p3490
sg96
S'http://gdata.youtube.com/schemas/2007#playlist'
p3491
sg190
S'20'
p3492
sg19
(lp3493
sbasg36
(lp3494
g1
(g38
g3
NtRp3495
(dp3496
g13
(dp3497
sg15
Nsg42
g1
(g43
g3
NtRp3498
(dp3499
g15
S'https://gdata.youtube.com/feeds/api/users/electronicaNstuff'
p3500
sg13
(dp3501
sg19
(lp3502
sbsg49
g1
(g50
g3
NtRp3503
(dp3504
g15
S'electronicaNstuff'
p3505
sg13
(dp3506
sg19
(lp3507
sbsg56
Nsg19
(lp3508
sbasg15
Nsg74
Nsg207
Nsg208
Nsg209
g1
(g210
g3
NtRp3509
(dp3510
g213
Nsg19
(lp3511
sg70
S'text'
p3512
sg13
(dp3513
sg15
Nsbsg218
Nsg13
(dp3514
sg86
(lp3515
g1
(g88
g3
NtRp3516
(dp3517
g13
(dp3518
sg65
Nsg15
Nsg92
Nsg93
Nsg94
S'https://gdata.youtube.com/feeds/api/users/electronicanstuff'
p3519
sg96
S'related'
p3520
sg70
S'application/atom+xml'
p3521
sg19
(lp3522
sbag1
(g88
g3
NtRp3523
(dp3524
g13
(dp3525
sg65
Nsg15
Nsg92
Nsg93
Nsg94
S'https://www.youtube.com/playlist?list=PLbAVnhNl-sE4sAMOK1tangDDtxTdH4bxN'
p3526
sg96
S'alternate'
p3527
sg70
S'text/html'
p3528
sg19
(lp3529
sbag1
(g88
g3
NtRp3530
(dp3531
g13
(dp3532
sg65
Nsg15
Nsg92
Nsg93
Nsg94
S'https://gdata.youtube.com/feeds/api/users/electronicanstuff/playlists/PLbAVnhNl-sE4sAMOK1tangDDtxTdH4bxN'
p3533
sg96
S'self'
p3534
sg70
S'application/atom+xml'
p3535
sg19
(lp3536
sbag1
(g88
g3
NtRp3537
(dp3538
g13
(dp3539
sg65
Nsg15
Nsg92
Nsg93
Nsg94
S'https://gdata.youtube.com/feeds/api/users/electronicanstuff/playlists/PLbAVnhNl-sE4sAMOK1tangDDtxTdH4bxN'
p3540
sg96
S'edit'
p3541
sg70
S'application/atom+xml'
p3542
sg19
(lp3543
sbasg249
g1
(g250
g3
NtRp3544
(dp3545
g15
S'2012-09-21T04:01:36.000Z'
p3546
sg13
(dp3547
sg19
(lp3548
sbsg256
(lp3549
sg65
g1
(g66
g3
NtRp3550
(dp3551
g15
S'CS 156 - Machine Learning Intro'
p3552
sg70
S'text'
p3553
sg13
(dp3554
sg19
(lp3555
sbsg19
(lp3556
g1
(g265
g3
NtRp3557
(dp3558
g268
(dp3559
sg270
S'group'
p3560
sg272
S'http://search.yahoo.com/mrss/'
p3561
sg274
(lp3562
g1
(g265
g3
NtRp3563
(dp3564
g268
(dp3565
g279
S'https://i.ytimg.com/vi/mbyG85GZ0PI/default.jpg'
p3566
sg281
S'120'
p3567
sg283
S'90'
p3568
sg285
S'default'
p3569
ssg270
S'thumbnail'
p3570
sg272
S'http://search.yahoo.com/mrss/'
p3571
sg274
(lp3572
sg15
Nsbag1
(g265
g3
NtRp3573
(dp3574
g268
(dp3575
g279
S'https://i.ytimg.com/vi/mbyG85GZ0PI/mqdefault.jpg'
p3576
sg281
S'320'
p3577
sg283
S'180'
p3578
sg285
S'mqdefault'
p3579
ssg270
S'thumbnail'
p3580
sg272
S'http://search.yahoo.com/mrss/'
p3581
sg274
(lp3582
sg15
Nsbag1
(g265
g3
NtRp3583
(dp3584
g268
(dp3585
g279
S'https://i.ytimg.com/vi/mbyG85GZ0PI/hqdefault.jpg'
p3586
sg281
S'480'
p3587
sg283
S'360'
p3588
sg285
S'hqdefault'
p3589
ssg270
S'thumbnail'
p3590
sg272
S'http://search.yahoo.com/mrss/'
p3591
sg274
(lp3592
sg15
Nsbag1
(g265
g3
NtRp3593
(dp3594
g268
(dp3595
g313
S'0'
ssg270
S'duration'
p3596
sg272
S'http://gdata.youtube.com/schemas/2007'
p3597
sg274
(lp3598
sg15
Nsbasg15
Nsbag1
(g265
g3
NtRp3599
(dp3600
g268
(dp3601
sg270
S'playlistId'
p3602
sg272
S'http://gdata.youtube.com/schemas/2007'
p3603
sg274
(lp3604
sg15
S'PLbAVnhNl-sE4sAMOK1tangDDtxTdH4bxN'
p3605
sbasbag1
(g151
g3
NtRp3606
(dp3607
g6
(lp3608
g1
(g8
g3
NtRp3609
(dp3610
g11
S'http://gdata.youtube.com/schemas/2007#playlistLink'
p3611
sg13
(dp3612
sg15
Nsg16
Nsg17
S'http://schemas.google.com/g/2005#kind'
p3613
sg19
(lp3614
sbasg161
Nsg21
g1
(g22
g3
NtRp3615
(dp3616
g15
S'2012-08-30T20:18:09.000Z'
p3617
sg13
(dp3618
sg19
(lp3619
sbsg167
g1
(g30
g3
NtRp3620
(dp3621
g15
S'http://gdata.youtube.com/feeds/api/users/electronicanstuff/playlists/PL156CCF1427574917'
p3622
sg13
(dp3623
sg19
(lp3624
sbsg173
g1
(g174
g3
NtRp3625
(dp3626
g15
Nsg13
(dp3627
sg19
(lp3628
sbsg180
(lp3629
g1
(g182
g3
NtRp3630
(dp3631
g185
Nsg186
Nsg13
(dp3632
sg15
Nsg94
S'https://gdata.youtube.com/feeds/api/playlists/PL156CCF1427574917'
p3633
sg96
S'http://gdata.youtube.com/schemas/2007#playlist'
p3634
sg190
S'1'
sg19
(lp3635
sbasg36
(lp3636
g1
(g38
g3
NtRp3637
(dp3638
g13
(dp3639
sg15
Nsg42
g1
(g43
g3
NtRp3640
(dp3641
g15
S'https://gdata.youtube.com/feeds/api/users/electronicaNstuff'
p3642
sg13
(dp3643
sg19
(lp3644
sbsg49
g1
(g50
g3
NtRp3645
(dp3646
g15
S'electronicaNstuff'
p3647
sg13
(dp3648
sg19
(lp3649
sbsg56
Nsg19
(lp3650
sbasg15
Nsg74
Nsg207
Nsg208
Nsg209
g1
(g210
g3
NtRp3651
(dp3652
g213
Nsg19
(lp3653
sg70
S'text'
p3654
sg13
(dp3655
sg15
Nsbsg218
Nsg13
(dp3656
sg86
(lp3657
g1
(g88
g3
NtRp3658
(dp3659
g13
(dp3660
sg65
Nsg15
Nsg92
Nsg93
Nsg94
S'https://gdata.youtube.com/feeds/api/users/electronicanstuff'
p3661
sg96
S'related'
p3662
sg70
S'application/atom+xml'
p3663
sg19
(lp3664
sbag1
(g88
g3
NtRp3665
(dp3666
g13
(dp3667
sg65
Nsg15
Nsg92
Nsg93
Nsg94
S'https://www.youtube.com/playlist?list=PL156CCF1427574917'
p3668
sg96
S'alternate'
p3669
sg70
S'text/html'
p3670
sg19
(lp3671
sbag1
(g88
g3
NtRp3672
(dp3673
g13
(dp3674
sg65
Nsg15
Nsg92
Nsg93
Nsg94
S'https://gdata.youtube.com/feeds/api/users/electronicanstuff/playlists/PL156CCF1427574917'
p3675
sg96
S'self'
p3676
sg70
S'application/atom+xml'
p3677
sg19
(lp3678
sbag1
(g88
g3
NtRp3679
(dp3680
g13
(dp3681
sg65
Nsg15
Nsg92
Nsg93
Nsg94
S'https://gdata.youtube.com/feeds/api/users/electronicanstuff/playlists/PL156CCF1427574917'
p3682
sg96
S'edit'
p3683
sg70
S'application/atom+xml'
p3684
sg19
(lp3685
sbasg249
g1
(g250
g3
NtRp3686
(dp3687
g15
S'2012-08-30T20:18:06.000Z'
p3688
sg13
(dp3689
sg19
(lp3690
sbsg256
(lp3691
sg65
g1
(g66
g3
NtRp3692
(dp3693
g15
S'Physics'
p3694
sg70
S'text'
p3695
sg13
(dp3696
sg19
(lp3697
sbsg19
(lp3698
g1
(g265
g3
NtRp3699
(dp3700
g268
(dp3701
sg270
S'group'
p3702
sg272
S'http://search.yahoo.com/mrss/'
p3703
sg274
(lp3704
g1
(g265
g3
NtRp3705
(dp3706
g268
(dp3707
g279
S'https://i.ytimg.com/vi/0NbBjNiw4tk/default.jpg'
p3708
sg281
S'120'
p3709
sg283
S'90'
p3710
sg285
S'default'
p3711
ssg270
S'thumbnail'
p3712
sg272
S'http://search.yahoo.com/mrss/'
p3713
sg274
(lp3714
sg15
Nsbag1
(g265
g3
NtRp3715
(dp3716
g268
(dp3717
g279
S'https://i.ytimg.com/vi/0NbBjNiw4tk/mqdefault.jpg'
p3718
sg281
S'320'
p3719
sg283
S'180'
p3720
sg285
S'mqdefault'
p3721
ssg270
S'thumbnail'
p3722
sg272
S'http://search.yahoo.com/mrss/'
p3723
sg274
(lp3724
sg15
Nsbag1
(g265
g3
NtRp3725
(dp3726
g268
(dp3727
g279
S'https://i.ytimg.com/vi/0NbBjNiw4tk/hqdefault.jpg'
p3728
sg281
S'480'
p3729
sg283
S'360'
p3730
sg285
S'hqdefault'
p3731
ssg270
S'thumbnail'
p3732
sg272
S'http://search.yahoo.com/mrss/'
p3733
sg274
(lp3734
sg15
Nsbag1
(g265
g3
NtRp3735
(dp3736
g268
(dp3737
g313
S'0'
ssg270
S'duration'
p3738
sg272
S'http://gdata.youtube.com/schemas/2007'
p3739
sg274
(lp3740
sg15
Nsbasg15
Nsbag1
(g265
g3
NtRp3741
(dp3742
g268
(dp3743
sg270
S'playlistId'
p3744
sg272
S'http://gdata.youtube.com/schemas/2007'
p3745
sg274
(lp3746
sg15
S'PL156CCF1427574917'
p3747
sbasbasg256
(lp3748
sS'logo'
p3749
g1
(catom
Logo
p3750
g3
NtRp3751
(dp3752
g15
S'http://www.gstatic.com/youtube/img/logo.png'
p3753
sg13
(dp3754
sg19
(lp3755
sbsg19
(lp3756
sg15
NsS'start_index'
p3757
g1
(cgdata
StartIndex
p3758
g3
NtRp3759
(dp3760
g15
S'1'
sg13
(dp3761
sg19
(lp3762
sbsS'icon'
p3763
Nsb.